
build/kernel-x86_64.bin:     file format elf64-x86-64


Disassembly of section .text:

0000000000108f90 <start>:
  108f90:	bc 00 40 13 00       	mov    esp,0x134000
  108f95:	89 df                	mov    edi,ebx
  108f97:	e8 78 00 00 00       	call   109014 <clear_cmd>
  108f9c:	e8 0e 01 00 00       	call   1090af <check_multiboot>
  108fa1:	e8 f1 00 00 00       	call   109097 <check_cpuid>
  108fa6:	e8 ca 00 00 00       	call   109075 <check_long_mode>
  108fab:	e8 28 00 00 00       	call   108fd8 <set_up_page_tables>
  108fb0:	e8 95 00 00 00       	call   10904a <enable_paging>
  108fb5:	c7 05 00 80 0b 00 42 	mov    DWORD PTR [rip+0xb8000],0x24f0242        # 1c0fbf <_RNvNtCslB4Q0PG65QT_6hlq_os10interrupts3IDT+0x8cfbf>
  108fbc:	02 4f 02 
  108fbf:	c7 05 04 80 0b 00 4f 	mov    DWORD PTR [rip+0xb8004],0x254024f        # 1c0fcd <_RNvNtCslB4Q0PG65QT_6hlq_os10interrupts3IDT+0x8cfcd>
  108fc6:	02 54 02 
  108fc9:	0f 01 15 28 00 10 00 	lgdt   [rip+0x100028]        # 208ff8 <_RNvNtCslB4Q0PG65QT_6hlq_os10interrupts3IDT+0xd4ff8>
  108fd0:	ea                   	(bad)
  108fd1:	e0 90                	loopne 108f63 <_RNvNtNtNtNtNtCs9TWaYOb1t6o_4core3num3imp7flt2dec8strategy6dragon9POW5TO256+0xa4f>
  108fd3:	10 00                	adc    BYTE PTR [rax],al
  108fd5:	08 00                	or     BYTE PTR [rax],al
  108fd7:	f4                   	hlt

0000000000108fd8 <set_up_page_tables>:
  108fd8:	b8 00 e0 12 00       	mov    eax,0x12e000
  108fdd:	83 c8 03             	or     eax,0x3
  108fe0:	a3 00 d0 12 00 b8 00 	movabs ds:0x12f000b80012d000,eax
  108fe7:	f0 12 
  108fe9:	00 83 c8 03 a3 00    	add    BYTE PTR [rbx+0xa303c8],al
  108fef:	e0 12                	loopne 109003 <set_up_page_tables.map_p2_table+0xc>
  108ff1:	00 b9 00 00 00 00    	add    BYTE PTR [rcx+0x0],bh

0000000000108ff7 <set_up_page_tables.map_p2_table>:
  108ff7:	b8 00 00 20 00       	mov    eax,0x200000
  108ffc:	f7 e1                	mul    ecx
  108ffe:	0d 83 00 00 00       	or     eax,0x83
  109003:	89 04 cd 00 f0 12 00 	mov    DWORD PTR [rcx*8+0x12f000],eax
  10900a:	41 81 f9 00 02 00 00 	cmp    r9d,0x200
  109011:	75 e4                	jne    108ff7 <set_up_page_tables.map_p2_table>
  109013:	c3                   	ret

0000000000109014 <clear_cmd>:
  109014:	89 c6                	mov    esi,eax
  109016:	b8 00 00 00 00       	mov    eax,0x0

000000000010901b <clear_cmd.clear_cmd_loop>:
  10901b:	e8 09 00 00 00       	call   109029 <clear_row>
  109020:	40 83 f8 19          	rex cmp eax,0x19
  109024:	75 f5                	jne    10901b <clear_cmd.clear_cmd_loop>
  109026:	89 f0                	mov    eax,esi
  109028:	c3                   	ret

0000000000109029 <clear_row>:
  109029:	b9 00 00 00 00       	mov    ecx,0x0

000000000010902e <clear_row.clear_row_loop>:
  10902e:	6b d0 50             	imul   edx,eax,0x50
  109031:	01 ca                	add    edx,ecx
  109033:	d1 e2                	shl    edx,1
  109035:	c6 82 00 80 0b 00 20 	mov    BYTE PTR [rdx+0xb8000],0x20
  10903c:	c6 82 01 80 0b 00 07 	mov    BYTE PTR [rdx+0xb8001],0x7
  109043:	41 83 f9 50          	cmp    r9d,0x50
  109047:	75 e5                	jne    10902e <clear_row.clear_row_loop>
  109049:	c3                   	ret

000000000010904a <enable_paging>:
  10904a:	b8 00 d0 12 00       	mov    eax,0x12d000
  10904f:	0f 22 d8             	mov    cr3,rax
  109052:	0f 20 e0             	mov    rax,cr4
  109055:	83 c8 20             	or     eax,0x20
  109058:	0f 22 e0             	mov    cr4,rax
  10905b:	b9 80 00 00 c0       	mov    ecx,0xc0000080
  109060:	0f 32                	rdmsr
  109062:	0d 00 01 00 00       	or     eax,0x100
  109067:	0f 30                	wrmsr
  109069:	0f 20 c0             	mov    rax,cr0
  10906c:	0d 00 00 00 80       	or     eax,0x80000000
  109071:	0f 22 c0             	mov    cr0,rax
  109074:	c3                   	ret

0000000000109075 <check_long_mode>:
  109075:	b8 00 00 00 80       	mov    eax,0x80000000
  10907a:	0f a2                	cpuid
  10907c:	3d 01 00 00 80       	cmp    eax,0x80000001
  109081:	72 10                	jb     109093 <check_long_mode.no_long_mode>
  109083:	b8 01 00 00 80       	mov    eax,0x80000001
  109088:	0f a2                	cpuid
  10908a:	f7 c2 00 00 00 20    	test   edx,0x20000000
  109090:	74 01                	je     109093 <check_long_mode.no_long_mode>
  109092:	c3                   	ret

0000000000109093 <check_long_mode.no_long_mode>:
  109093:	b0 32                	mov    al,0x32
  109095:	eb 24                	jmp    1090bb <error>

0000000000109097 <check_cpuid>:
  109097:	9c                   	pushf
  109098:	58                   	pop    rax
  109099:	89 c1                	mov    ecx,eax
  10909b:	35 00 00 20 00       	xor    eax,0x200000
  1090a0:	50                   	push   rax
  1090a1:	9d                   	popf
  1090a2:	9c                   	pushf
  1090a3:	58                   	pop    rax
  1090a4:	51                   	push   rcx
  1090a5:	9d                   	popf
  1090a6:	39 c8                	cmp    eax,ecx
  1090a8:	74 01                	je     1090ab <check_cpuid.no_cpuid>
  1090aa:	c3                   	ret

00000000001090ab <check_cpuid.no_cpuid>:
  1090ab:	b0 31                	mov    al,0x31
  1090ad:	eb 0c                	jmp    1090bb <error>

00000000001090af <check_multiboot>:
  1090af:	3d 89 62 d7 36       	cmp    eax,0x36d76289
  1090b4:	75 01                	jne    1090b7 <check_multiboot.no_multiboot>
  1090b6:	c3                   	ret

00000000001090b7 <check_multiboot.no_multiboot>:
  1090b7:	b0 30                	mov    al,0x30
  1090b9:	eb 00                	jmp    1090bb <error>

00000000001090bb <error>:
  1090bb:	c7 05 00 80 0b 00 45 	mov    DWORD PTR [rip+0xb8000],0x4f524f45        # 1c10c5 <_RNvNtCslB4Q0PG65QT_6hlq_os10interrupts3IDT+0x8d0c5>
  1090c2:	4f 52 4f 
  1090c5:	c7 05 04 80 0b 00 52 	mov    DWORD PTR [rip+0xb8004],0x4f3a4f52        # 1c10d3 <_RNvNtCslB4Q0PG65QT_6hlq_os10interrupts3IDT+0x8d0d3>
  1090cc:	4f 3a 4f 
  1090cf:	c7 05 08 80 0b 00 20 	mov    DWORD PTR [rip+0xb8008],0x4f204f20        # 1c10e1 <_RNvNtCslB4Q0PG65QT_6hlq_os10interrupts3IDT+0x8d0e1>
  1090d6:	4f 20 4f 
  1090d9:	a2                   	.byte 0xa2
  1090da:	0a 80 0b 00 f4 90    	or     al,BYTE PTR [rax-0x6f0bfff5]

00000000001090e0 <long_mode_start>:
  1090e0:	66 b8 00 00          	mov    ax,0x0
  1090e4:	8e d0                	mov    ss,eax
  1090e6:	8e d8                	mov    ds,eax
  1090e8:	8e c0                	mov    es,eax
  1090ea:	8e e0                	mov    fs,eax
  1090ec:	8e e8                	mov    gs,eax
  1090ee:	48 b8 4c 02 4f 02 4e 	movabs rax,0x247024e024f024c
  1090f5:	02 47 02 
  1090f8:	48 89 04 25 a0 80 0b 	mov    QWORD PTR ds:0xb80a0,rax
  1090ff:	00 
  109100:	c7 04 25 a8 80 0b 00 	mov    DWORD PTR ds:0xb80a8,0x220
  109107:	20 02 00 00 
  10910b:	48 b8 42 02 4f 02 4f 	movabs rax,0x254024f024f0242
  109112:	02 54 02 
  109115:	48 89 04 25 aa 80 0b 	mov    QWORD PTR ds:0xb80aa,rax
  10911c:	00 
  10911d:	e8 6e 06 00 00       	call   109790 <rust_main>
  109122:	f4                   	hlt
  109123:	90                   	nop

0000000000109124 <asm_handler_de>:
  109124:	6a 00                	push   0x0
  109126:	50                   	push   rax
  109127:	53                   	push   rbx
  109128:	51                   	push   rcx
  109129:	52                   	push   rdx
  10912a:	56                   	push   rsi
  10912b:	57                   	push   rdi
  10912c:	55                   	push   rbp
  10912d:	41 50                	push   r8
  10912f:	41 51                	push   r9
  109131:	41 52                	push   r10
  109133:	41 53                	push   r11
  109135:	41 54                	push   r12
  109137:	41 55                	push   r13
  109139:	41 56                	push   r14
  10913b:	41 57                	push   r15
  10913d:	48 89 e7             	mov    rdi,rsp
  109140:	e8 1b 04 00 00       	call   109560 <rust_handler_de>
  109145:	41 5f                	pop    r15
  109147:	41 5e                	pop    r14
  109149:	41 5d                	pop    r13
  10914b:	41 5c                	pop    r12
  10914d:	41 5b                	pop    r11
  10914f:	41 5a                	pop    r10
  109151:	41 59                	pop    r9
  109153:	41 58                	pop    r8
  109155:	5d                   	pop    rbp
  109156:	5f                   	pop    rdi
  109157:	5e                   	pop    rsi
  109158:	5a                   	pop    rdx
  109159:	59                   	pop    rcx
  10915a:	5b                   	pop    rbx
  10915b:	58                   	pop    rax
  10915c:	48 83 c4 08          	add    rsp,0x8
  109160:	48 cf                	iretq

0000000000109162 <asm_handler_bp>:
  109162:	6a 00                	push   0x0
  109164:	50                   	push   rax
  109165:	53                   	push   rbx
  109166:	51                   	push   rcx
  109167:	52                   	push   rdx
  109168:	56                   	push   rsi
  109169:	57                   	push   rdi
  10916a:	55                   	push   rbp
  10916b:	41 50                	push   r8
  10916d:	41 51                	push   r9
  10916f:	41 52                	push   r10
  109171:	41 53                	push   r11
  109173:	41 54                	push   r12
  109175:	41 55                	push   r13
  109177:	41 56                	push   r14
  109179:	41 57                	push   r15
  10917b:	48 89 e7             	mov    rdi,rsp
  10917e:	e8 7d 03 00 00       	call   109500 <rust_handler_bp>
  109183:	41 5f                	pop    r15
  109185:	41 5e                	pop    r14
  109187:	41 5d                	pop    r13
  109189:	41 5c                	pop    r12
  10918b:	41 5b                	pop    r11
  10918d:	41 5a                	pop    r10
  10918f:	41 59                	pop    r9
  109191:	41 58                	pop    r8
  109193:	5d                   	pop    rbp
  109194:	5f                   	pop    rdi
  109195:	5e                   	pop    rsi
  109196:	5a                   	pop    rdx
  109197:	59                   	pop    rcx
  109198:	5b                   	pop    rbx
  109199:	58                   	pop    rax
  10919a:	48 83 c4 08          	add    rsp,0x8
  10919e:	48 cf                	iretq

00000000001091a0 <asm_handler_gp>:
  1091a0:	50                   	push   rax
  1091a1:	53                   	push   rbx
  1091a2:	51                   	push   rcx
  1091a3:	52                   	push   rdx
  1091a4:	56                   	push   rsi
  1091a5:	57                   	push   rdi
  1091a6:	55                   	push   rbp
  1091a7:	41 50                	push   r8
  1091a9:	41 51                	push   r9
  1091ab:	41 52                	push   r10
  1091ad:	41 53                	push   r11
  1091af:	41 54                	push   r12
  1091b1:	41 55                	push   r13
  1091b3:	41 56                	push   r14
  1091b5:	41 57                	push   r15
  1091b7:	48 89 e7             	mov    rdi,rsp
  1091ba:	e8 71 04 00 00       	call   109630 <rust_handler_gp>
  1091bf:	41 5f                	pop    r15
  1091c1:	41 5e                	pop    r14
  1091c3:	41 5d                	pop    r13
  1091c5:	41 5c                	pop    r12
  1091c7:	41 5b                	pop    r11
  1091c9:	41 5a                	pop    r10
  1091cb:	41 59                	pop    r9
  1091cd:	41 58                	pop    r8
  1091cf:	5d                   	pop    rbp
  1091d0:	5f                   	pop    rdi
  1091d1:	5e                   	pop    rsi
  1091d2:	5a                   	pop    rdx
  1091d3:	59                   	pop    rcx
  1091d4:	5b                   	pop    rbx
  1091d5:	58                   	pop    rax
  1091d6:	48 83 c4 08          	add    rsp,0x8
  1091da:	48 cf                	iretq

00000000001091dc <asm_handler_pf>:
  1091dc:	50                   	push   rax
  1091dd:	53                   	push   rbx
  1091de:	51                   	push   rcx
  1091df:	52                   	push   rdx
  1091e0:	56                   	push   rsi
  1091e1:	57                   	push   rdi
  1091e2:	55                   	push   rbp
  1091e3:	41 50                	push   r8
  1091e5:	41 51                	push   r9
  1091e7:	41 52                	push   r10
  1091e9:	41 53                	push   r11
  1091eb:	41 54                	push   r12
  1091ed:	41 55                	push   r13
  1091ef:	41 56                	push   r14
  1091f1:	41 57                	push   r15
  1091f3:	48 89 e7             	mov    rdi,rsp
  1091f6:	e8 c5 04 00 00       	call   1096c0 <rust_handler_pf>
  1091fb:	41 5f                	pop    r15
  1091fd:	41 5e                	pop    r14
  1091ff:	41 5d                	pop    r13
  109201:	41 5c                	pop    r12
  109203:	41 5b                	pop    r11
  109205:	41 5a                	pop    r10
  109207:	41 59                	pop    r9
  109209:	41 58                	pop    r8
  10920b:	5d                   	pop    rbp
  10920c:	5f                   	pop    rdi
  10920d:	5e                   	pop    rsi
  10920e:	5a                   	pop    rdx
  10920f:	59                   	pop    rcx
  109210:	5b                   	pop    rbx
  109211:	58                   	pop    rax
  109212:	48 83 c4 08          	add    rsp,0x8
  109216:	48 cf                	iretq

Disassembly of section .text._RNvCsbmUlo3yQm42_7___rustc17rust_begin_unwind:

0000000000109220 <_RNvCsbmUlo3yQm42_7___rustc17rust_begin_unwind>:
  109220:	eb fe                	jmp    109220 <_RNvCsbmUlo3yQm42_7___rustc17rust_begin_unwind>

Disassembly of section .text._RNvMNtCslB4Q0PG65QT_6hlq_os10vga_writerNtB2_9VGAWriter5print:

0000000000109230 <_RNvMNtCslB4Q0PG65QT_6hlq_os10vga_writerNtB2_9VGAWriter5print>:
  109230:	48 85 d2             	test   rdx,rdx
  109233:	0f 84 f6 01 00 00    	je     10942f <_RNvMNtCslB4Q0PG65QT_6hlq_os10vga_writerNtB2_9VGAWriter5print+0x1ff>
  109239:	55                   	push   rbp
  10923a:	41 57                	push   r15
  10923c:	41 56                	push   r14
  10923e:	41 55                	push   r13
  109240:	41 54                	push   r12
  109242:	53                   	push   rbx
  109243:	48 83 ec 18          	sub    rsp,0x18
  109247:	49 89 d6             	mov    r14,rdx
  10924a:	49 89 fa             	mov    r10,rdi
  10924d:	4c 8d 4f 08          	lea    r9,[rdi+0x8]
  109251:	4c 8b 27             	mov    r12,QWORD PTR [rdi]
  109254:	4c 8b 6f 08          	mov    r13,QWORD PTR [rdi+0x8]
  109258:	44 0f b6 5f 18       	movzx  r11d,BYTE PTR [rdi+0x18]
  10925d:	48 8b 6f 10          	mov    rbp,QWORD PTR [rdi+0x10]
  109261:	f6 47 19 01          	test   BYTE PTR [rdi+0x19],0x1
  109265:	48 89 74 24 08       	mov    QWORD PTR [rsp+0x8],rsi
  10926a:	0f 84 d4 00 00 00    	je     109344 <_RNvMNtCslB4Q0PG65QT_6hlq_os10vga_writerNtB2_9VGAWriter5print+0x114>
  109270:	4c 89 4c 24 10       	mov    QWORD PTR [rsp+0x10],r9
  109275:	45 31 ff             	xor    r15d,r15d
  109278:	bf fe 00 00 00       	mov    edi,0xfe
  10927d:	eb 17                	jmp    109296 <_RNvMNtCslB4Q0PG65QT_6hlq_os10vga_writerNtB2_9VGAWriter5print+0x66>
  10927f:	90                   	nop
  109280:	48 ff c5             	inc    rbp
  109283:	49 89 6a 10          	mov    QWORD PTR [r10+0x10],rbp
  109287:	45 31 ed             	xor    r13d,r13d
  10928a:	49 ff c7             	inc    r15
  10928d:	4d 39 fe             	cmp    r14,r15
  109290:	0f 84 83 01 00 00    	je     109419 <_RNvMNtCslB4Q0PG65QT_6hlq_os10vga_writerNtB2_9VGAWriter5print+0x1e9>
  109296:	42 0f b6 1c 3e       	movzx  ebx,BYTE PTR [rsi+r15*1]
  10929b:	80 fb 0a             	cmp    bl,0xa
  10929e:	74 e0                	je     109280 <_RNvMNtCslB4Q0PG65QT_6hlq_os10vga_writerNtB2_9VGAWriter5print+0x50>
  1092a0:	49 83 fd 50          	cmp    r13,0x50
  1092a4:	7c 2b                	jl     1092d1 <_RNvMNtCslB4Q0PG65QT_6hlq_os10vga_writerNtB2_9VGAWriter5print+0xa1>
  1092a6:	4c 89 e8             	mov    rax,r13
  1092a9:	48 b9 cd cc cc cc cc 	movabs rcx,0xcccccccccccccccd
  1092b0:	cc cc cc 
  1092b3:	48 f7 e1             	mul    rcx
  1092b6:	48 c1 ea 06          	shr    rdx,0x6
  1092ba:	48 01 d5             	add    rbp,rdx
  1092bd:	49 89 6a 10          	mov    QWORD PTR [r10+0x10],rbp
  1092c1:	48 c1 e2 04          	shl    rdx,0x4
  1092c5:	48 8d 04 92          	lea    rax,[rdx+rdx*4]
  1092c9:	48 8b 74 24 08       	mov    rsi,QWORD PTR [rsp+0x8]
  1092ce:	49 29 c5             	sub    r13,rax
  1092d1:	48 83 fd 19          	cmp    rbp,0x19
  1092d5:	7c 33                	jl     10930a <_RNvMNtCslB4Q0PG65QT_6hlq_os10vga_writerNtB2_9VGAWriter5print+0xda>
  1092d7:	49 c7 42 10 00 00 00 	mov    QWORD PTR [r10+0x10],0x0
  1092de:	00 
  1092df:	ba a0 00 00 00       	mov    edx,0xa0
  1092e4:	4c 89 e7             	mov    rdi,r12
  1092e7:	31 f6                	xor    esi,esi
  1092e9:	4d 89 d5             	mov    r13,r10
  1092ec:	44 89 dd             	mov    ebp,r11d
  1092ef:	ff 15 5b 25 02 00    	call   QWORD PTR [rip+0x2255b]        # 12b850 <_RNvNtCsditBB9aEfcw_17compiler_builtins3mem7memmove+0x220>
  1092f5:	bf fe 00 00 00       	mov    edi,0xfe
  1092fa:	48 8b 74 24 08       	mov    rsi,QWORD PTR [rsp+0x8]
  1092ff:	41 89 eb             	mov    r11d,ebp
  109302:	4d 89 ea             	mov    r10,r13
  109305:	31 ed                	xor    ebp,ebp
  109307:	45 31 ed             	xor    r13d,r13d
  10930a:	8d 43 e0             	lea    eax,[rbx-0x20]
  10930d:	3c 5f                	cmp    al,0x5f
  10930f:	0f b6 c3             	movzx  eax,bl
  109312:	0f 43 c7             	cmovae eax,edi
  109315:	48 8d 0c ad 00 00 00 	lea    rcx,[rbp*4+0x0]
  10931c:	00 
  10931d:	48 01 e9             	add    rcx,rbp
  109320:	48 c1 e1 04          	shl    rcx,0x4
  109324:	4c 01 e9             	add    rcx,r13
  109327:	41 88 04 4c          	mov    BYTE PTR [r12+rcx*2],al
  10932b:	45 88 5c 4c 01       	mov    BYTE PTR [r12+rcx*2+0x1],r11b
  109330:	49 ff c5             	inc    r13
  109333:	49 ff c7             	inc    r15
  109336:	4d 39 fe             	cmp    r14,r15
  109339:	0f 85 57 ff ff ff    	jne    109296 <_RNvMNtCslB4Q0PG65QT_6hlq_os10vga_writerNtB2_9VGAWriter5print+0x66>
  10933f:	e9 d5 00 00 00       	jmp    109419 <_RNvMNtCslB4Q0PG65QT_6hlq_os10vga_writerNtB2_9VGAWriter5print+0x1e9>
  109344:	31 c9                	xor    ecx,ecx
  109346:	48 bb cd cc cc cc cc 	movabs rbx,0xcccccccccccccccd
  10934d:	cc cc cc 
  109350:	bf fe 00 00 00       	mov    edi,0xfe
  109355:	eb 22                	jmp    109379 <_RNvMNtCslB4Q0PG65QT_6hlq_os10vga_writerNtB2_9VGAWriter5print+0x149>
  109357:	66 0f 1f 84 00 00 00 	nop    WORD PTR [rax+rax*1+0x0]
  10935e:	00 00 
  109360:	48 ff c5             	inc    rbp
  109363:	49 89 6a 10          	mov    QWORD PTR [r10+0x10],rbp
  109367:	45 31 ed             	xor    r13d,r13d
  10936a:	4d 89 29             	mov    QWORD PTR [r9],r13
  10936d:	48 ff c1             	inc    rcx
  109370:	49 39 ce             	cmp    r14,rcx
  109373:	0f 84 a8 00 00 00    	je     109421 <_RNvMNtCslB4Q0PG65QT_6hlq_os10vga_writerNtB2_9VGAWriter5print+0x1f1>
  109379:	44 0f b6 04 0e       	movzx  r8d,BYTE PTR [rsi+rcx*1]
  10937e:	41 80 f8 0a          	cmp    r8b,0xa
  109382:	74 dc                	je     109360 <_RNvMNtCslB4Q0PG65QT_6hlq_os10vga_writerNtB2_9VGAWriter5print+0x130>
  109384:	49 83 fd 50          	cmp    r13,0x50
  109388:	7c 1c                	jl     1093a6 <_RNvMNtCslB4Q0PG65QT_6hlq_os10vga_writerNtB2_9VGAWriter5print+0x176>
  10938a:	4c 89 e8             	mov    rax,r13
  10938d:	48 f7 e3             	mul    rbx
  109390:	48 c1 ea 06          	shr    rdx,0x6
  109394:	48 01 d5             	add    rbp,rdx
  109397:	49 89 6a 10          	mov    QWORD PTR [r10+0x10],rbp
  10939b:	48 c1 e2 04          	shl    rdx,0x4
  10939f:	48 8d 04 92          	lea    rax,[rdx+rdx*4]
  1093a3:	49 29 c5             	sub    r13,rax
  1093a6:	48 83 fd 18          	cmp    rbp,0x18
  1093aa:	7f 32                	jg     1093de <_RNvMNtCslB4Q0PG65QT_6hlq_os10vga_writerNtB2_9VGAWriter5print+0x1ae>
  1093ac:	41 8d 40 e0          	lea    eax,[r8-0x20]
  1093b0:	3c 5f                	cmp    al,0x5f
  1093b2:	41 0f b6 c0          	movzx  eax,r8b
  1093b6:	0f 43 c7             	cmovae eax,edi
  1093b9:	48 8d 14 ad 00 00 00 	lea    rdx,[rbp*4+0x0]
  1093c0:	00 
  1093c1:	48 01 ea             	add    rdx,rbp
  1093c4:	48 c1 e2 04          	shl    rdx,0x4
  1093c8:	4c 01 ea             	add    rdx,r13
  1093cb:	41 88 04 54          	mov    BYTE PTR [r12+rdx*2],al
  1093cf:	45 88 5c 54 01       	mov    BYTE PTR [r12+rdx*2+0x1],r11b
  1093d4:	49 ff c5             	inc    r13
  1093d7:	48 8b 74 24 08       	mov    rsi,QWORD PTR [rsp+0x8]
  1093dc:	eb 8c                	jmp    10936a <_RNvMNtCslB4Q0PG65QT_6hlq_os10vga_writerNtB2_9VGAWriter5print+0x13a>
  1093de:	49 c7 41 08 00 00 00 	mov    QWORD PTR [r9+0x8],0x0
  1093e5:	00 
  1093e6:	4c 89 4c 24 10       	mov    QWORD PTR [rsp+0x10],r9
  1093eb:	49 c7 01 00 00 00 00 	mov    QWORD PTR [r9],0x0
  1093f2:	41 c6 42 18 e4       	mov    BYTE PTR [r10+0x18],0xe4
  1093f7:	48 8d 35 34 6c ff ff 	lea    rsi,[rip+0xffffffffffff6c34]        # 100032 <gdt64.pointer+0xa>
  1093fe:	ba 08 00 00 00       	mov    edx,0x8
  109403:	4c 89 d7             	mov    rdi,r10
  109406:	4c 89 d3             	mov    rbx,r10
  109409:	45 89 de             	mov    r14d,r11d
  10940c:	e8 1f fe ff ff       	call   109230 <_RNvMNtCslB4Q0PG65QT_6hlq_os10vga_writerNtB2_9VGAWriter5print>
  109411:	44 88 73 18          	mov    BYTE PTR [rbx+0x18],r14b
  109415:	48 89 6b 10          	mov    QWORD PTR [rbx+0x10],rbp
  109419:	48 8b 44 24 10       	mov    rax,QWORD PTR [rsp+0x10]
  10941e:	4c 89 28             	mov    QWORD PTR [rax],r13
  109421:	48 83 c4 18          	add    rsp,0x18
  109425:	5b                   	pop    rbx
  109426:	41 5c                	pop    r12
  109428:	41 5d                	pop    r13
  10942a:	41 5e                	pop    r14
  10942c:	41 5f                	pop    r15
  10942e:	5d                   	pop    rbp
  10942f:	c3                   	ret

Disassembly of section .text._RNvXs_NtCslB4Q0PG65QT_6hlq_os10vga_writerNtB4_9VGAWriterNtNtCs9TWaYOb1t6o_4core3fmt5Write9write_str:

0000000000109430 <_RNvXs_NtCslB4Q0PG65QT_6hlq_os10vga_writerNtB4_9VGAWriterNtNtCs9TWaYOb1t6o_4core3fmt5Write9write_str>:
  109430:	50                   	push   rax
  109431:	e8 fa fd ff ff       	call   109230 <_RNvMNtCslB4Q0PG65QT_6hlq_os10vga_writerNtB2_9VGAWriter5print>
  109436:	31 c0                	xor    eax,eax
  109438:	59                   	pop    rcx
  109439:	c3                   	ret

Disassembly of section .text._RNvYNtNtCslB4Q0PG65QT_6hlq_os10vga_writer9VGAWriterNtNtCs9TWaYOb1t6o_4core3fmt5Write10write_charB6_:

0000000000109440 <_RNvYNtNtCslB4Q0PG65QT_6hlq_os10vga_writer9VGAWriterNtNtCs9TWaYOb1t6o_4core3fmt5Write10write_charB6_>:
  109440:	50                   	push   rax
  109441:	c7 44 24 04 00 00 00 	mov    DWORD PTR [rsp+0x4],0x0
  109448:	00 
  109449:	81 fe 80 00 00 00    	cmp    esi,0x80
  10944f:	73 0c                	jae    10945d <_RNvYNtNtCslB4Q0PG65QT_6hlq_os10vga_writer9VGAWriterNtNtCs9TWaYOb1t6o_4core3fmt5Write10write_charB6_+0x1d>
  109451:	40 88 74 24 04       	mov    BYTE PTR [rsp+0x4],sil
  109456:	ba 01 00 00 00       	mov    edx,0x1
  10945b:	eb 71                	jmp    1094ce <_RNvYNtNtCslB4Q0PG65QT_6hlq_os10vga_writer9VGAWriterNtNtCs9TWaYOb1t6o_4core3fmt5Write10write_charB6_+0x8e>
  10945d:	89 f0                	mov    eax,esi
  10945f:	24 3f                	and    al,0x3f
  109461:	0c 80                	or     al,0x80
  109463:	89 f1                	mov    ecx,esi
  109465:	c1 e9 06             	shr    ecx,0x6
  109468:	81 fe 00 08 00 00    	cmp    esi,0x800
  10946e:	73 12                	jae    109482 <_RNvYNtNtCslB4Q0PG65QT_6hlq_os10vga_writer9VGAWriterNtNtCs9TWaYOb1t6o_4core3fmt5Write10write_charB6_+0x42>
  109470:	80 c9 c0             	or     cl,0xc0
  109473:	88 4c 24 04          	mov    BYTE PTR [rsp+0x4],cl
  109477:	88 44 24 05          	mov    BYTE PTR [rsp+0x5],al
  10947b:	ba 02 00 00 00       	mov    edx,0x2
  109480:	eb 4c                	jmp    1094ce <_RNvYNtNtCslB4Q0PG65QT_6hlq_os10vga_writer9VGAWriterNtNtCs9TWaYOb1t6o_4core3fmt5Write10write_charB6_+0x8e>
  109482:	80 e1 3f             	and    cl,0x3f
  109485:	80 c9 80             	or     cl,0x80
  109488:	89 f2                	mov    edx,esi
  10948a:	c1 ea 0c             	shr    edx,0xc
  10948d:	81 fe ff ff 00 00    	cmp    esi,0xffff
  109493:	77 16                	ja     1094ab <_RNvYNtNtCslB4Q0PG65QT_6hlq_os10vga_writer9VGAWriterNtNtCs9TWaYOb1t6o_4core3fmt5Write10write_charB6_+0x6b>
  109495:	80 ca e0             	or     dl,0xe0
  109498:	88 54 24 04          	mov    BYTE PTR [rsp+0x4],dl
  10949c:	88 4c 24 05          	mov    BYTE PTR [rsp+0x5],cl
  1094a0:	88 44 24 06          	mov    BYTE PTR [rsp+0x6],al
  1094a4:	ba 03 00 00 00       	mov    edx,0x3
  1094a9:	eb 23                	jmp    1094ce <_RNvYNtNtCslB4Q0PG65QT_6hlq_os10vga_writer9VGAWriterNtNtCs9TWaYOb1t6o_4core3fmt5Write10write_charB6_+0x8e>
  1094ab:	80 e2 3f             	and    dl,0x3f
  1094ae:	80 ca 80             	or     dl,0x80
  1094b1:	c1 ee 12             	shr    esi,0x12
  1094b4:	40 80 ce f0          	or     sil,0xf0
  1094b8:	40 88 74 24 04       	mov    BYTE PTR [rsp+0x4],sil
  1094bd:	88 54 24 05          	mov    BYTE PTR [rsp+0x5],dl
  1094c1:	88 4c 24 06          	mov    BYTE PTR [rsp+0x6],cl
  1094c5:	88 44 24 07          	mov    BYTE PTR [rsp+0x7],al
  1094c9:	ba 04 00 00 00       	mov    edx,0x4
  1094ce:	48 8d 74 24 04       	lea    rsi,[rsp+0x4]
  1094d3:	e8 58 fd ff ff       	call   109230 <_RNvMNtCslB4Q0PG65QT_6hlq_os10vga_writerNtB2_9VGAWriter5print>
  1094d8:	31 c0                	xor    eax,eax
  1094da:	59                   	pop    rcx
  1094db:	c3                   	ret

Disassembly of section .text._RNvYNtNtCslB4Q0PG65QT_6hlq_os10vga_writer9VGAWriterNtNtCs9TWaYOb1t6o_4core3fmt5Write9write_fmtB6_:

00000000001094e0 <_RNvYNtNtCslB4Q0PG65QT_6hlq_os10vga_writer9VGAWriterNtNtCs9TWaYOb1t6o_4core3fmt5Write9write_fmtB6_>:
  1094e0:	48 89 d1             	mov    rcx,rdx
  1094e3:	48 89 f2             	mov    rdx,rsi
  1094e6:	48 8d 35 7b 24 02 00 	lea    rsi,[rip+0x2247b]        # 12b968 <_RNvNtCslB4Q0PG65QT_6hlq_os10vga_writer9GL_VGA_WT+0x20>
  1094ed:	ff 25 e5 21 02 00    	jmp    QWORD PTR [rip+0x221e5]        # 12b6d8 <_RNvNtCsditBB9aEfcw_17compiler_builtins3mem7memmove+0xa8>

Disassembly of section .text.rust_handler_bp:

0000000000109500 <rust_handler_bp>:
  109500:	41 56                	push   r14
  109502:	53                   	push   rbx
  109503:	48 83 ec 18          	sub    rsp,0x18
  109507:	48 89 fb             	mov    rbx,rdi
  10950a:	4c 8d 35 37 24 02 00 	lea    r14,[rip+0x22437]        # 12b948 <_RNvNtCslB4Q0PG65QT_6hlq_os10vga_writer9GL_VGA_WT>
  109511:	48 8d 35 52 6b ff ff 	lea    rsi,[rip+0xffffffffffff6b52]        # 10006a <gdt64.pointer+0x42>
  109518:	ba 19 00 00 00       	mov    edx,0x19
  10951d:	4c 89 f7             	mov    rdi,r14
  109520:	e8 0b fd ff ff       	call   109230 <_RNvMNtCslB4Q0PG65QT_6hlq_os10vga_writerNtB2_9VGAWriter5print>
  109525:	48 83 eb 80          	sub    rbx,0xffffffffffffff80
  109529:	48 89 5c 24 08       	mov    QWORD PTR [rsp+0x8],rbx
  10952e:	48 8d 05 2b df 01 00 	lea    rax,[rip+0x1df2b]        # 127460 <_RNvXsd_NtNtNtCs9TWaYOb1t6o_4core3fmt3num3impyNtB9_7Display3fmt>
  109535:	48 89 44 24 10       	mov    QWORD PTR [rsp+0x10],rax
  10953a:	48 8d 35 27 24 02 00 	lea    rsi,[rip+0x22427]        # 12b968 <_RNvNtCslB4Q0PG65QT_6hlq_os10vga_writer9GL_VGA_WT+0x20>
  109541:	48 8d 15 3b 6b ff ff 	lea    rdx,[rip+0xffffffffffff6b3b]        # 100083 <gdt64.pointer+0x5b>
  109548:	48 8d 4c 24 08       	lea    rcx,[rsp+0x8]
  10954d:	4c 89 f7             	mov    rdi,r14
  109550:	ff 15 82 21 02 00    	call   QWORD PTR [rip+0x22182]        # 12b6d8 <_RNvNtCsditBB9aEfcw_17compiler_builtins3mem7memmove+0xa8>
  109556:	48 83 c4 18          	add    rsp,0x18
  10955a:	5b                   	pop    rbx
  10955b:	41 5e                	pop    r14
  10955d:	c3                   	ret

Disassembly of section .text.rust_handler_de:

0000000000109560 <rust_handler_de>:
  109560:	41 57                	push   r15
  109562:	41 56                	push   r14
  109564:	41 55                	push   r13
  109566:	41 54                	push   r12
  109568:	53                   	push   rbx
  109569:	48 83 ec 20          	sub    rsp,0x20
  10956d:	49 89 fe             	mov    r14,rdi
  109570:	48 8d 1d d1 23 02 00 	lea    rbx,[rip+0x223d1]        # 12b948 <_RNvNtCslB4Q0PG65QT_6hlq_os10vga_writer9GL_VGA_WT>
  109577:	48 8d 35 b7 79 ff ff 	lea    rsi,[rip+0xffffffffffff79b7]        # 100f35 <gdt64.pointer+0xf0d>
  10957e:	ba 28 00 00 00       	mov    edx,0x28
  109583:	48 89 df             	mov    rdi,rbx
  109586:	e8 a5 fc ff ff       	call   109230 <_RNvMNtCslB4Q0PG65QT_6hlq_os10vga_writerNtB2_9VGAWriter5print>
  10958b:	49 8d 86 80 00 00 00 	lea    rax,[r14+0x80]
  109592:	48 89 04 24          	mov    QWORD PTR [rsp],rax
  109596:	4c 8d 2d c3 de 01 00 	lea    r13,[rip+0x1dec3]        # 127460 <_RNvXsd_NtNtNtCs9TWaYOb1t6o_4core3fmt3num3impyNtB9_7Display3fmt>
  10959d:	4c 89 6c 24 08       	mov    QWORD PTR [rsp+0x8],r13
  1095a2:	4c 8d 3d bf 23 02 00 	lea    r15,[rip+0x223bf]        # 12b968 <_RNvNtCslB4Q0PG65QT_6hlq_os10vga_writer9GL_VGA_WT+0x20>
  1095a9:	48 8d 15 f8 6a ff ff 	lea    rdx,[rip+0xffffffffffff6af8]        # 1000a8 <gdt64.pointer+0x80>
  1095b0:	4c 8d 25 79 b4 00 00 	lea    r12,[rip+0xb479]        # 114a30 <_RNvNtCs9TWaYOb1t6o_4core3fmt5write>
  1095b7:	48 89 e1             	mov    rcx,rsp
  1095ba:	48 89 df             	mov    rdi,rbx
  1095bd:	4c 89 fe             	mov    rsi,r15
  1095c0:	41 ff d4             	call   r12
  1095c3:	49 8d 86 98 00 00 00 	lea    rax,[r14+0x98]
  1095ca:	48 89 04 24          	mov    QWORD PTR [rsp],rax
  1095ce:	4c 89 6c 24 08       	mov    QWORD PTR [rsp+0x8],r13
  1095d3:	48 8d 15 f0 6a ff ff 	lea    rdx,[rip+0xffffffffffff6af0]        # 1000ca <gdt64.pointer+0xa2>
  1095da:	48 89 e1             	mov    rcx,rsp
  1095dd:	48 89 df             	mov    rdi,rbx
  1095e0:	4c 89 fe             	mov    rsi,r15
  1095e3:	41 ff d4             	call   r12
  1095e6:	49 8d 46 70          	lea    rax,[r14+0x70]
  1095ea:	49 83 c6 68          	add    r14,0x68
  1095ee:	48 89 04 24          	mov    QWORD PTR [rsp],rax
  1095f2:	4c 89 6c 24 08       	mov    QWORD PTR [rsp+0x8],r13
  1095f7:	4c 89 74 24 10       	mov    QWORD PTR [rsp+0x10],r14
  1095fc:	4c 89 6c 24 18       	mov    QWORD PTR [rsp+0x18],r13
  109601:	48 8d 15 e4 6a ff ff 	lea    rdx,[rip+0xffffffffffff6ae4]        # 1000ec <gdt64.pointer+0xc4>
  109608:	48 89 e1             	mov    rcx,rsp
  10960b:	48 89 df             	mov    rdi,rbx
  10960e:	4c 89 fe             	mov    rsi,r15
  109611:	41 ff d4             	call   r12
  109614:	66 66 66 2e 0f 1f 84 	data16 data16 cs nop WORD PTR [rax+rax*1+0x0]
  10961b:	00 00 00 00 00 
  109620:	eb fe                	jmp    109620 <rust_handler_de+0xc0>

Disassembly of section .text.rust_handler_gp:

0000000000109630 <rust_handler_gp>:
  109630:	41 57                	push   r15
  109632:	41 56                	push   r14
  109634:	41 55                	push   r13
  109636:	41 54                	push   r12
  109638:	53                   	push   rbx
  109639:	48 83 ec 10          	sub    rsp,0x10
  10963d:	49 89 fe             	mov    r14,rdi
  109640:	48 8d 1d 01 23 02 00 	lea    rbx,[rip+0x22301]        # 12b948 <_RNvNtCslB4Q0PG65QT_6hlq_os10vga_writer9GL_VGA_WT>
  109647:	48 8d 35 0f 79 ff ff 	lea    rsi,[rip+0xffffffffffff790f]        # 100f5d <gdt64.pointer+0xf35>
  10964e:	ba 27 00 00 00       	mov    edx,0x27
  109653:	48 89 df             	mov    rdi,rbx
  109656:	e8 d5 fb ff ff       	call   109230 <_RNvMNtCslB4Q0PG65QT_6hlq_os10vga_writerNtB2_9VGAWriter5print>
  10965b:	49 8d 46 78          	lea    rax,[r14+0x78]
  10965f:	48 89 04 24          	mov    QWORD PTR [rsp],rax
  109663:	4c 8d 25 f6 dd 01 00 	lea    r12,[rip+0x1ddf6]        # 127460 <_RNvXsd_NtNtNtCs9TWaYOb1t6o_4core3fmt3num3impyNtB9_7Display3fmt>
  10966a:	4c 89 64 24 08       	mov    QWORD PTR [rsp+0x8],r12
  10966f:	4c 8d 3d f2 22 02 00 	lea    r15,[rip+0x222f2]        # 12b968 <_RNvNtCslB4Q0PG65QT_6hlq_os10vga_writer9GL_VGA_WT+0x20>
  109676:	48 8d 15 87 6a ff ff 	lea    rdx,[rip+0xffffffffffff6a87]        # 100104 <gdt64.pointer+0xdc>
  10967d:	4c 8d 2d ac b3 00 00 	lea    r13,[rip+0xb3ac]        # 114a30 <_RNvNtCs9TWaYOb1t6o_4core3fmt5write>
  109684:	48 89 e1             	mov    rcx,rsp
  109687:	48 89 df             	mov    rdi,rbx
  10968a:	4c 89 fe             	mov    rsi,r15
  10968d:	41 ff d5             	call   r13
  109690:	49 83 ee 80          	sub    r14,0xffffffffffffff80
  109694:	4c 89 34 24          	mov    QWORD PTR [rsp],r14
  109698:	4c 89 64 24 08       	mov    QWORD PTR [rsp+0x8],r12
  10969d:	48 8d 15 82 6a ff ff 	lea    rdx,[rip+0xffffffffffff6a82]        # 100126 <gdt64.pointer+0xfe>
  1096a4:	48 89 e1             	mov    rcx,rsp
  1096a7:	48 89 df             	mov    rdi,rbx
  1096aa:	4c 89 fe             	mov    rsi,r15
  1096ad:	41 ff d5             	call   r13
  1096b0:	eb fe                	jmp    1096b0 <rust_handler_gp+0x80>

Disassembly of section .text.rust_handler_pf:

00000000001096c0 <rust_handler_pf>:
  1096c0:	41 57                	push   r15
  1096c2:	41 56                	push   r14
  1096c4:	41 55                	push   r13
  1096c6:	41 54                	push   r12
  1096c8:	53                   	push   rbx
  1096c9:	48 83 ec 20          	sub    rsp,0x20
  1096cd:	49 89 fe             	mov    r14,rdi
  1096d0:	0f 20 d0             	mov    rax,cr2
  1096d3:	48 89 44 24 18       	mov    QWORD PTR [rsp+0x18],rax
  1096d8:	48 8d 1d 69 22 02 00 	lea    rbx,[rip+0x22269]        # 12b948 <_RNvNtCslB4Q0PG65QT_6hlq_os10vga_writer9GL_VGA_WT>
  1096df:	48 8d 35 9e 78 ff ff 	lea    rsi,[rip+0xffffffffffff789e]        # 100f84 <gdt64.pointer+0xf5c>
  1096e6:	ba 19 00 00 00       	mov    edx,0x19
  1096eb:	48 89 df             	mov    rdi,rbx
  1096ee:	e8 3d fb ff ff       	call   109230 <_RNvMNtCslB4Q0PG65QT_6hlq_os10vga_writerNtB2_9VGAWriter5print>
  1096f3:	48 8d 44 24 18       	lea    rax,[rsp+0x18]
  1096f8:	48 89 44 24 08       	mov    QWORD PTR [rsp+0x8],rax
  1096fd:	4c 8d 2d 5c dd 01 00 	lea    r13,[rip+0x1dd5c]        # 127460 <_RNvXsd_NtNtNtCs9TWaYOb1t6o_4core3fmt3num3impyNtB9_7Display3fmt>
  109704:	4c 89 6c 24 10       	mov    QWORD PTR [rsp+0x10],r13
  109709:	4c 8d 3d 58 22 02 00 	lea    r15,[rip+0x22258]        # 12b968 <_RNvNtCslB4Q0PG65QT_6hlq_os10vga_writer9GL_VGA_WT+0x20>
  109710:	48 8d 15 31 6a ff ff 	lea    rdx,[rip+0xffffffffffff6a31]        # 100148 <gdt64.pointer+0x120>
  109717:	4c 8d 25 12 b3 00 00 	lea    r12,[rip+0xb312]        # 114a30 <_RNvNtCs9TWaYOb1t6o_4core3fmt5write>
  10971e:	48 8d 4c 24 08       	lea    rcx,[rsp+0x8]
  109723:	48 89 df             	mov    rdi,rbx
  109726:	4c 89 fe             	mov    rsi,r15
  109729:	41 ff d4             	call   r12
  10972c:	49 8d 46 78          	lea    rax,[r14+0x78]
  109730:	48 89 44 24 08       	mov    QWORD PTR [rsp+0x8],rax
  109735:	4c 89 6c 24 10       	mov    QWORD PTR [rsp+0x10],r13
  10973a:	48 8d 15 29 6a ff ff 	lea    rdx,[rip+0xffffffffffff6a29]        # 10016a <gdt64.pointer+0x142>
  109741:	48 8d 4c 24 08       	lea    rcx,[rsp+0x8]
  109746:	48 89 df             	mov    rdi,rbx
  109749:	4c 89 fe             	mov    rsi,r15
  10974c:	41 ff d4             	call   r12
  10974f:	49 83 ee 80          	sub    r14,0xffffffffffffff80
  109753:	4c 89 74 24 08       	mov    QWORD PTR [rsp+0x8],r14
  109758:	4c 89 6c 24 10       	mov    QWORD PTR [rsp+0x10],r13
  10975d:	48 8d 15 c2 69 ff ff 	lea    rdx,[rip+0xffffffffffff69c2]        # 100126 <gdt64.pointer+0xfe>
  109764:	48 8d 4c 24 08       	lea    rcx,[rsp+0x8]
  109769:	48 89 df             	mov    rdi,rbx
  10976c:	4c 89 fe             	mov    rsi,r15
  10976f:	41 ff d4             	call   r12
  109772:	66 66 66 66 66 2e 0f 	data16 data16 data16 data16 cs nop WORD PTR [rax+rax*1+0x0]
  109779:	1f 84 00 00 00 00 00 
  109780:	eb fe                	jmp    109780 <rust_handler_pf+0xc0>

Disassembly of section .text.rust_main:

0000000000109790 <rust_main>:
  109790:	48 83 ec 18          	sub    rsp,0x18
  109794:	c6 05 c5 21 02 00 02 	mov    BYTE PTR [rip+0x221c5],0x2        # 12b960 <_RNvNtCslB4Q0PG65QT_6hlq_os10vga_writer9GL_VGA_WT+0x18>
  10979b:	48 8d 3d a6 21 02 00 	lea    rdi,[rip+0x221a6]        # 12b948 <_RNvNtCslB4Q0PG65QT_6hlq_os10vga_writer9GL_VGA_WT>
  1097a2:	48 c7 05 ab 21 02 00 	mov    QWORD PTR [rip+0x221ab],0x2        # 12b958 <_RNvNtCslB4Q0PG65QT_6hlq_os10vga_writer9GL_VGA_WT+0x10>
  1097a9:	02 00 00 00 
  1097ad:	48 8d 05 70 f9 ff ff 	lea    rax,[rip+0xfffffffffffff970]        # 109124 <asm_handler_de>
  1097b4:	48 89 c1             	mov    rcx,rax
  1097b7:	66 89 05 42 a8 02 00 	mov    WORD PTR [rip+0x2a842],ax        # 134000 <_RNvNtCslB4Q0PG65QT_6hlq_os10interrupts3IDT>
  1097be:	89 c2                	mov    edx,eax
  1097c0:	c1 ea 10             	shr    edx,0x10
  1097c3:	48 c1 e9 20          	shr    rcx,0x20
  1097c7:	48 8d 05 32 a8 02 00 	lea    rax,[rip+0x2a832]        # 134000 <_RNvNtCslB4Q0PG65QT_6hlq_os10interrupts3IDT>
  1097ce:	c7 05 2a a8 02 00 08 	mov    DWORD PTR [rip+0x2a82a],0x8e000008        # 134002 <_RNvNtCslB4Q0PG65QT_6hlq_os10interrupts3IDT+0x2>
  1097d5:	00 00 8e 
  1097d8:	66 89 15 27 a8 02 00 	mov    WORD PTR [rip+0x2a827],dx        # 134006 <_RNvNtCslB4Q0PG65QT_6hlq_os10interrupts3IDT+0x6>
  1097df:	89 0d 23 a8 02 00    	mov    DWORD PTR [rip+0x2a823],ecx        # 134008 <_RNvNtCslB4Q0PG65QT_6hlq_os10interrupts3IDT+0x8>
  1097e5:	c7 05 1d a8 02 00 00 	mov    DWORD PTR [rip+0x2a81d],0x0        # 13400c <_RNvNtCslB4Q0PG65QT_6hlq_os10interrupts3IDT+0xc>
  1097ec:	00 00 00 
  1097ef:	48 8d 0d 6c f9 ff ff 	lea    rcx,[rip+0xfffffffffffff96c]        # 109162 <asm_handler_bp>
  1097f6:	48 89 ca             	mov    rdx,rcx
  1097f9:	66 89 0d 30 a8 02 00 	mov    WORD PTR [rip+0x2a830],cx        # 134030 <_RNvNtCslB4Q0PG65QT_6hlq_os10interrupts3IDT+0x30>
  109800:	c1 e9 10             	shr    ecx,0x10
  109803:	48 c1 ea 20          	shr    rdx,0x20
  109807:	c7 05 21 a8 02 00 08 	mov    DWORD PTR [rip+0x2a821],0x8f000008        # 134032 <_RNvNtCslB4Q0PG65QT_6hlq_os10interrupts3IDT+0x32>
  10980e:	00 00 8f 
  109811:	66 89 0d 1e a8 02 00 	mov    WORD PTR [rip+0x2a81e],cx        # 134036 <_RNvNtCslB4Q0PG65QT_6hlq_os10interrupts3IDT+0x36>
  109818:	89 15 1a a8 02 00    	mov    DWORD PTR [rip+0x2a81a],edx        # 134038 <_RNvNtCslB4Q0PG65QT_6hlq_os10interrupts3IDT+0x38>
  10981e:	c7 05 14 a8 02 00 00 	mov    DWORD PTR [rip+0x2a814],0x0        # 13403c <_RNvNtCslB4Q0PG65QT_6hlq_os10interrupts3IDT+0x3c>
  109825:	00 00 00 
  109828:	48 8d 0d 71 f9 ff ff 	lea    rcx,[rip+0xfffffffffffff971]        # 1091a0 <asm_handler_gp>
  10982f:	48 89 ca             	mov    rdx,rcx
  109832:	66 89 0d 97 a8 02 00 	mov    WORD PTR [rip+0x2a897],cx        # 1340d0 <_RNvNtCslB4Q0PG65QT_6hlq_os10interrupts3IDT+0xd0>
  109839:	c1 e9 10             	shr    ecx,0x10
  10983c:	48 c1 ea 20          	shr    rdx,0x20
  109840:	c7 05 88 a8 02 00 08 	mov    DWORD PTR [rip+0x2a888],0x8e000008        # 1340d2 <_RNvNtCslB4Q0PG65QT_6hlq_os10interrupts3IDT+0xd2>
  109847:	00 00 8e 
  10984a:	66 89 0d 85 a8 02 00 	mov    WORD PTR [rip+0x2a885],cx        # 1340d6 <_RNvNtCslB4Q0PG65QT_6hlq_os10interrupts3IDT+0xd6>
  109851:	89 15 81 a8 02 00    	mov    DWORD PTR [rip+0x2a881],edx        # 1340d8 <_RNvNtCslB4Q0PG65QT_6hlq_os10interrupts3IDT+0xd8>
  109857:	c7 05 7b a8 02 00 00 	mov    DWORD PTR [rip+0x2a87b],0x0        # 1340dc <_RNvNtCslB4Q0PG65QT_6hlq_os10interrupts3IDT+0xdc>
  10985e:	00 00 00 
  109861:	48 8d 0d 74 f9 ff ff 	lea    rcx,[rip+0xfffffffffffff974]        # 1091dc <asm_handler_pf>
  109868:	48 89 ca             	mov    rdx,rcx
  10986b:	66 89 0d 6e a8 02 00 	mov    WORD PTR [rip+0x2a86e],cx        # 1340e0 <_RNvNtCslB4Q0PG65QT_6hlq_os10interrupts3IDT+0xe0>
  109872:	c1 e9 10             	shr    ecx,0x10
  109875:	48 c1 ea 20          	shr    rdx,0x20
  109879:	c7 05 5f a8 02 00 08 	mov    DWORD PTR [rip+0x2a85f],0x8e000008        # 1340e2 <_RNvNtCslB4Q0PG65QT_6hlq_os10interrupts3IDT+0xe2>
  109880:	00 00 8e 
  109883:	66 89 0d 5c a8 02 00 	mov    WORD PTR [rip+0x2a85c],cx        # 1340e6 <_RNvNtCslB4Q0PG65QT_6hlq_os10interrupts3IDT+0xe6>
  10988a:	89 15 58 a8 02 00    	mov    DWORD PTR [rip+0x2a858],edx        # 1340e8 <_RNvNtCslB4Q0PG65QT_6hlq_os10interrupts3IDT+0xe8>
  109890:	c7 05 52 a8 02 00 00 	mov    DWORD PTR [rip+0x2a852],0x0        # 1340ec <_RNvNtCslB4Q0PG65QT_6hlq_os10interrupts3IDT+0xec>
  109897:	00 00 00 
  10989a:	66 c7 04 24 ff 0f    	mov    WORD PTR [rsp],0xfff
  1098a0:	48 89 44 24 02       	mov    QWORD PTR [rsp+0x2],rax
  1098a5:	48 89 e0             	mov    rax,rsp
  1098a8:	0f 01 18             	lidt   [rax]
  1098ab:	cc                   	int3
  1098ac:	48 c7 c0 64 00 00 00 	mov    rax,0x64
  1098b3:	48 c7 c3 00 00 00 00 	mov    rbx,0x0
  1098ba:	48 f7 f3             	div    rbx
  1098bd:	48 b8 1f 85 eb 51 b8 	movabs rax,0x40091eb851eb851f
  1098c4:	1e 09 40 
  1098c7:	48 89 44 24 10       	mov    QWORD PTR [rsp+0x10],rax
  1098cc:	48 8d 44 24 10       	lea    rax,[rsp+0x10]
  1098d1:	48 89 04 24          	mov    QWORD PTR [rsp],rax
  1098d5:	48 8d 05 44 a3 01 00 	lea    rax,[rip+0x1a344]        # 123c20 <_RNvXs7_NtNtCs9TWaYOb1t6o_4core3fmt5floatdNtB7_7Display3fmt>
  1098dc:	48 89 44 24 08       	mov    QWORD PTR [rsp+0x8],rax
  1098e1:	48 8d 35 80 20 02 00 	lea    rsi,[rip+0x22080]        # 12b968 <_RNvNtCslB4Q0PG65QT_6hlq_os10vga_writer9GL_VGA_WT+0x20>
  1098e8:	48 8d 15 9d 68 ff ff 	lea    rdx,[rip+0xffffffffffff689d]        # 10018c <gdt64.pointer+0x164>
  1098ef:	48 89 e1             	mov    rcx,rsp
  1098f2:	ff 15 e0 1d 02 00    	call   QWORD PTR [rip+0x21de0]        # 12b6d8 <_RNvNtCsditBB9aEfcw_17compiler_builtins3mem7memmove+0xa8>
  1098f8:	0f 1f 84 00 00 00 00 	nop    DWORD PTR [rax+rax*1+0x0]
  1098ff:	00 
  109900:	eb fe                	jmp    109900 <rust_main+0x170>

Disassembly of section .text.unlikely._RINvNtCs9TWaYOb1t6o_4core9panicking13assert_failedINtNtB4_6option6OptionjEBM_EB4_:

0000000000109902 <_RINvNtCs9TWaYOb1t6o_4core9panicking13assert_failedINtNtB4_6option6OptionjEBM_EB4_>:
  109902:	55                   	push   rbp
  109903:	48 89 e5             	mov    rbp,rsp
  109906:	48 83 ec 10          	sub    rsp,0x10
  10990a:	4c 89 c8             	mov    rax,r9
  10990d:	4d 89 c2             	mov    r10,r8
  109910:	49 89 c9             	mov    r9,rcx
  109913:	4c 8d 45 f8          	lea    r8,[rbp-0x8]
  109917:	49 89 30             	mov    QWORD PTR [r8],rsi
  10991a:	48 8d 4d f0          	lea    rcx,[rbp-0x10]
  10991e:	48 89 11             	mov    QWORD PTR [rcx],rdx
  109921:	48 8d 15 70 20 02 00 	lea    rdx,[rip+0x22070]        # 12b998 <_RNvNtCslB4Q0PG65QT_6hlq_os10vga_writer9GL_VGA_WT+0x50>
  109928:	4c 89 c6             	mov    rsi,r8
  10992b:	49 89 d0             	mov    r8,rdx
  10992e:	50                   	push   rax
  10992f:	41 52                	push   r10
  109931:	ff 15 19 1e 02 00    	call   QWORD PTR [rip+0x21e19]        # 12b750 <_RNvNtCsditBB9aEfcw_17compiler_builtins3mem7memmove+0x120>

Disassembly of section .text.unlikely._RINvNtCs9TWaYOb1t6o_4core9panicking13assert_failedjjEB4_:

0000000000109937 <_RINvNtCs9TWaYOb1t6o_4core9panicking13assert_failedjjEB4_>:
  109937:	55                   	push   rbp
  109938:	48 89 e5             	mov    rbp,rsp
  10993b:	48 83 ec 10          	sub    rsp,0x10
  10993f:	4c 89 c8             	mov    rax,r9
  109942:	4d 89 c2             	mov    r10,r8
  109945:	49 89 c9             	mov    r9,rcx
  109948:	4c 8d 45 f8          	lea    r8,[rbp-0x8]
  10994c:	49 89 30             	mov    QWORD PTR [r8],rsi
  10994f:	48 8d 4d f0          	lea    rcx,[rbp-0x10]
  109953:	48 89 11             	mov    QWORD PTR [rcx],rdx
  109956:	48 8d 15 5b 20 02 00 	lea    rdx,[rip+0x2205b]        # 12b9b8 <_RNvNtCslB4Q0PG65QT_6hlq_os10vga_writer9GL_VGA_WT+0x70>
  10995d:	4c 89 c6             	mov    rsi,r8
  109960:	49 89 d0             	mov    r8,rdx
  109963:	50                   	push   rax
  109964:	41 52                	push   r10
  109966:	ff 15 e4 1d 02 00    	call   QWORD PTR [rip+0x21de4]        # 12b750 <_RNvNtCsditBB9aEfcw_17compiler_builtins3mem7memmove+0x120>

Disassembly of section .text.unlikely._RINvNtCs9TWaYOb1t6o_4core9panicking13assert_failedyyEB4_:

000000000010996c <_RINvNtCs9TWaYOb1t6o_4core9panicking13assert_failedyyEB4_>:
  10996c:	55                   	push   rbp
  10996d:	48 89 e5             	mov    rbp,rsp
  109970:	48 83 ec 10          	sub    rsp,0x10
  109974:	4c 89 c8             	mov    rax,r9
  109977:	4d 89 c2             	mov    r10,r8
  10997a:	49 89 c9             	mov    r9,rcx
  10997d:	4c 8d 45 f8          	lea    r8,[rbp-0x8]
  109981:	49 89 30             	mov    QWORD PTR [r8],rsi
  109984:	48 8d 4d f0          	lea    rcx,[rbp-0x10]
  109988:	48 89 11             	mov    QWORD PTR [rcx],rdx
  10998b:	48 8d 15 46 20 02 00 	lea    rdx,[rip+0x22046]        # 12b9d8 <_RNvNtCslB4Q0PG65QT_6hlq_os10vga_writer9GL_VGA_WT+0x90>
  109992:	4c 89 c6             	mov    rsi,r8
  109995:	49 89 d0             	mov    r8,rdx
  109998:	50                   	push   rax
  109999:	41 52                	push   r10
  10999b:	ff 15 af 1d 02 00    	call   QWORD PTR [rip+0x21daf]        # 12b750 <_RNvNtCsditBB9aEfcw_17compiler_builtins3mem7memmove+0x120>

Disassembly of section .text._RINvNtNtCs9TWaYOb1t6o_4core3fmt5float29float_to_decimal_common_exactC3f16EB6_:

00000000001099b0 <_RINvNtNtCs9TWaYOb1t6o_4core3fmt5float29float_to_decimal_common_exactC3f16EB6_>:
  1099b0:	55                   	push   rbp
  1099b1:	48 89 e5             	mov    rbp,rsp
  1099b4:	41 57                	push   r15
  1099b6:	41 56                	push   r14
  1099b8:	41 55                	push   r13
  1099ba:	41 54                	push   r12
  1099bc:	53                   	push   rbx
  1099bd:	48 81 ec b8 04 00 00 	sub    rsp,0x4b8
  1099c4:	0f b7 c6             	movzx  eax,si
  1099c7:	41 89 c1             	mov    r9d,eax
  1099ca:	41 c1 e9 0a          	shr    r9d,0xa
  1099ce:	44 8d 1c 36          	lea    r11d,[rsi+rsi*1]
  1099d2:	41 81 e3 fe 07 00 00 	and    r11d,0x7fe
  1099d9:	41 89 f2             	mov    r10d,esi
  1099dc:	41 81 e2 ff 03 00 00 	and    r10d,0x3ff
  1099e3:	45 8d 82 00 04 00 00 	lea    r8d,[r10+0x400]
  1099ea:	66 41 83 e1 1f       	and    r9w,0x1f
  1099ef:	45 0f 44 c3          	cmove  r8d,r11d
  1099f3:	45 89 c7             	mov    r15d,r8d
  1099f6:	41 83 e7 01          	and    r15d,0x1
  1099fa:	45 31 db             	xor    r11d,r11d
  1099fd:	45 85 d2             	test   r10d,r10d
  109a00:	41 0f 94 c3          	sete   r11b
  109a04:	81 e6 00 7c 00 00    	and    esi,0x7c00
  109a0a:	45 89 da             	mov    r10d,r11d
  109a0d:	41 80 f2 03          	xor    r10b,0x3
  109a11:	85 f6                	test   esi,esi
  109a13:	45 0f b6 d2          	movzx  r10d,r10b
  109a17:	bb 04 00 00 00       	mov    ebx,0x4
  109a1c:	41 0f 44 da          	cmove  ebx,r10d
  109a20:	44 0f b7 e9          	movzx  r13d,cx
  109a24:	81 fe 00 7c 00 00    	cmp    esi,0x7c00
  109a2a:	41 0f 44 db          	cmove  ebx,r11d
  109a2e:	0f b6 f3             	movzx  esi,bl
  109a31:	4c 8d 15 68 75 ff ff 	lea    r10,[rip+0xffffffffffff7568]        # 100fa0 <gdt64.pointer+0xf78>
  109a38:	49 63 34 b2          	movsxd rsi,DWORD PTR [r10+rsi*4]
  109a3c:	4c 01 d6             	add    rsi,r10
  109a3f:	ff e6                	jmp    rsi
  109a41:	41 b7 02             	mov    r15b,0x2
  109a44:	eb 4b                	jmp    109a91 <_RINvNtNtCs9TWaYOb1t6o_4core3fmt5float29float_to_decimal_common_exactC3f16EB6_+0xe1>
  109a46:	43 8d 34 00          	lea    esi,[r8+r8*1]
  109a4a:	45 31 db             	xor    r11d,r11d
  109a4d:	49 81 f8 00 04 00 00 	cmp    r8,0x400
  109a54:	41 0f 94 c3          	sete   r11b
  109a58:	41 b8 00 10 00 00    	mov    r8d,0x1000
  109a5e:	4c 0f 45 c6          	cmovne r8,rsi
  109a62:	4d 8d 53 01          	lea    r10,[r11+0x1]
  109a66:	41 0f b7 f1          	movzx  esi,r9w
  109a6a:	44 29 de             	sub    esi,r11d
  109a6d:	83 c6 e6             	add    esi,0xffffffe6
  109a70:	41 80 f7 01          	xor    r15b,0x1
  109a74:	eb 1b                	jmp    109a91 <_RINvNtNtCs9TWaYOb1t6o_4core3fmt5float29float_to_decimal_common_exactC3f16EB6_+0xe1>
  109a76:	41 b7 04             	mov    r15b,0x4
  109a79:	eb 16                	jmp    109a91 <_RINvNtNtCs9TWaYOb1t6o_4core3fmt5float29float_to_decimal_common_exactC3f16EB6_+0xe1>
  109a7b:	41 0f b7 f1          	movzx  esi,r9w
  109a7f:	83 c6 e7             	add    esi,0xffffffe7
  109a82:	41 80 f7 01          	xor    r15b,0x1
  109a86:	41 ba 01 00 00 00    	mov    r10d,0x1
  109a8c:	eb 03                	jmp    109a91 <_RINvNtNtCs9TWaYOb1t6o_4core3fmt5float29float_to_decimal_common_exactC3f16EB6_+0xe1>
  109a8e:	41 b7 03             	mov    r15b,0x3
  109a91:	4c 89 85 20 ff ff ff 	mov    QWORD PTR [rbp-0xe0],r8
  109a98:	48 c7 85 28 ff ff ff 	mov    QWORD PTR [rbp-0xd8],0x1
  109a9f:	01 00 00 00 
  109aa3:	4c 89 95 30 ff ff ff 	mov    QWORD PTR [rbp-0xd0],r10
  109aaa:	66 89 b5 38 ff ff ff 	mov    WORD PTR [rbp-0xc8],si
  109ab1:	44 88 bd 3a ff ff ff 	mov    BYTE PTR [rbp-0xc6],r15b
  109ab8:	41 80 ff 01          	cmp    r15b,0x1
  109abc:	0f 86 8f 00 00 00    	jbe    109b51 <_RINvNtNtCs9TWaYOb1t6o_4core3fmt5float29float_to_decimal_common_exactC3f16EB6_+0x1a1>
  109ac2:	41 80 c7 fe          	add    r15b,0xfe
  109ac6:	0f 84 8c 01 00 00    	je     109c58 <_RINvNtNtCs9TWaYOb1t6o_4core3fmt5float29float_to_decimal_common_exactC3f16EB6_+0x2a8>
  109acc:	41 89 c6             	mov    r14d,eax
  109acf:	41 c1 ee 0f          	shr    r14d,0xf
  109ad3:	66 85 c0             	test   ax,ax
  109ad6:	48 8d 1d ca 8f ff ff 	lea    rbx,[rip+0xffffffffffff8fca]        # 102aa7 <_RNvNtNtNtCs9TWaYOb1t6o_4core7unicode12unicode_data9uppercase17BITSET_CHUNKS_MAP+0x2d0>
  109add:	48 8d 35 c4 8f ff ff 	lea    rsi,[rip+0xffffffffffff8fc4]        # 102aa8 <_RNvNtNtNtCs9TWaYOb1t6o_4core7unicode12unicode_data9uppercase17BITSET_CHUNKS_MAP+0x2d1>
  109ae4:	48 0f 48 f3          	cmovs  rsi,rbx
  109ae8:	b8 01 00 00 00       	mov    eax,0x1
  109aed:	48 0f 49 d8          	cmovns rbx,rax
  109af1:	84 d2                	test   dl,dl
  109af3:	4c 0f 45 f0          	cmovne r14,rax
  109af7:	48 0f 45 de          	cmovne rbx,rsi
  109afb:	41 80 ff 02          	cmp    r15b,0x2
  109aff:	0f 85 fe 01 00 00    	jne    109d03 <_RINvNtNtCs9TWaYOb1t6o_4core3fmt5float29float_to_decimal_common_exactC3f16EB6_+0x353>
  109b05:	66 c7 85 40 ff ff ff 	mov    WORD PTR [rbp-0xc0],0x2
  109b0c:	02 00 
  109b0e:	66 85 c9             	test   cx,cx
  109b11:	0f 84 64 02 00 00    	je     109d7b <_RINvNtNtCs9TWaYOb1t6o_4core3fmt5float29float_to_decimal_common_exactC3f16EB6_+0x3cb>
  109b17:	48 8d 05 92 8f ff ff 	lea    rax,[rip+0xffffffffffff8f92]        # 102ab0 <_RNvNtNtNtCs9TWaYOb1t6o_4core7unicode12unicode_data9uppercase17BITSET_CHUNKS_MAP+0x2d9>
  109b1e:	48 89 85 48 ff ff ff 	mov    QWORD PTR [rbp-0xb8],rax
  109b25:	48 c7 85 50 ff ff ff 	mov    QWORD PTR [rbp-0xb0],0x2
  109b2c:	02 00 00 00 
  109b30:	66 c7 85 58 ff ff ff 	mov    WORD PTR [rbp-0xa8],0x0
  109b37:	00 00 
  109b39:	4c 89 ad 60 ff ff ff 	mov    QWORD PTR [rbp-0xa0],r13
  109b40:	b8 02 00 00 00       	mov    eax,0x2
  109b45:	4c 8d bd 40 ff ff ff 	lea    r15,[rbp-0xc0]
  109b4c:	e9 ff 01 00 00       	jmp    109d50 <_RINvNtNtCs9TWaYOb1t6o_4core3fmt5float29float_to_decimal_common_exactC3f16EB6_+0x3a0>
  109b51:	41 89 c6             	mov    r14d,eax
  109b54:	41 c1 ee 0f          	shr    r14d,0xf
  109b58:	66 85 c0             	test   ax,ax
  109b5b:	48 8d 1d 45 8f ff ff 	lea    rbx,[rip+0xffffffffffff8f45]        # 102aa7 <_RNvNtNtNtCs9TWaYOb1t6o_4core7unicode12unicode_data9uppercase17BITSET_CHUNKS_MAP+0x2d0>
  109b62:	48 8d 05 3f 8f ff ff 	lea    rax,[rip+0xffffffffffff8f3f]        # 102aa8 <_RNvNtNtNtCs9TWaYOb1t6o_4core7unicode12unicode_data9uppercase17BITSET_CHUNKS_MAP+0x2d1>
  109b69:	48 0f 48 c3          	cmovs  rax,rbx
  109b6d:	41 b8 01 00 00 00    	mov    r8d,0x1
  109b73:	49 0f 49 d8          	cmovns rbx,r8
  109b77:	84 d2                	test   dl,dl
  109b79:	4d 0f 45 f0          	cmovne r14,r8
  109b7d:	48 0f 45 d8          	cmovne rbx,rax
  109b81:	66 85 f6             	test   si,si
  109b84:	48 c7 c0 f4 ff ff ff 	mov    rax,0xfffffffffffffff4
  109b8b:	ba 05 00 00 00       	mov    edx,0x5
  109b90:	48 0f 48 d0          	cmovs  rdx,rax
  109b94:	4c 0f bf e6          	movsx  r12,si
  109b98:	4c 0f af e2          	imul   r12,rdx
  109b9c:	49 81 fc c0 3e 00 00 	cmp    r12,0x3ec0
  109ba3:	0f 83 f4 01 00 00    	jae    109d9d <_RINvNtNtCs9TWaYOb1t6o_4core3fmt5float29float_to_decimal_common_exactC3f16EB6_+0x3ed>
  109ba9:	4c 89 6d c0          	mov    QWORD PTR [rbp-0x40],r13
  109bad:	48 89 7d d0          	mov    QWORD PTR [rbp-0x30],rdi
  109bb1:	49 c1 ec 04          	shr    r12,0x4
  109bb5:	49 83 c4 15          	add    r12,0x15
  109bb9:	89 c8                	mov    eax,ecx
  109bbb:	f7 d8                	neg    eax
  109bbd:	89 4d cc             	mov    DWORD PTR [rbp-0x34],ecx
  109bc0:	66 85 c9             	test   cx,cx
  109bc3:	41 bd 00 80 00 00    	mov    r13d,0x8000
  109bc9:	44 0f 49 e8          	cmovns r13d,eax
  109bcd:	4c 8d bd 40 ff ff ff 	lea    r15,[rbp-0xc0]
  109bd4:	48 8d b5 20 ff ff ff 	lea    rsi,[rbp-0xe0]
  109bdb:	48 8d 95 20 fb ff ff 	lea    rdx,[rbp-0x4e0]
  109be2:	4c 89 ff             	mov    rdi,r15
  109be5:	4c 89 e1             	mov    rcx,r12
  109be8:	45 89 e8             	mov    r8d,r13d
  109beb:	ff 15 cf 1a 02 00    	call   QWORD PTR [rip+0x21acf]        # 12b6c0 <_RNvNtCsditBB9aEfcw_17compiler_builtins3mem7memmove+0x90>
  109bf1:	48 83 bd 40 ff ff ff 	cmp    QWORD PTR [rbp-0xc0],0x0
  109bf8:	00 
  109bf9:	0f 84 94 00 00 00    	je     109c93 <_RINvNtNtCs9TWaYOb1t6o_4core3fmt5float29float_to_decimal_common_exactC3f16EB6_+0x2e3>
  109bff:	48 8b 85 50 ff ff ff 	mov    rax,QWORD PTR [rbp-0xb0]
  109c06:	48 89 45 b0          	mov    QWORD PTR [rbp-0x50],rax
  109c0a:	48 8b 85 40 ff ff ff 	mov    rax,QWORD PTR [rbp-0xc0]
  109c11:	48 8b 8d 48 ff ff ff 	mov    rcx,QWORD PTR [rbp-0xb8]
  109c18:	48 89 4d a8          	mov    QWORD PTR [rbp-0x58],rcx
  109c1c:	48 89 45 a0          	mov    QWORD PTR [rbp-0x60],rax
  109c20:	0f b7 55 b0          	movzx  edx,WORD PTR [rbp-0x50]
  109c24:	66 44 39 ea          	cmp    dx,r13w
  109c28:	0f 8e 91 00 00 00    	jle    109cbf <_RINvNtNtCs9TWaYOb1t6o_4core3fmt5float29float_to_decimal_common_exactC3f16EB6_+0x30f>
  109c2e:	48 8b 7d a0          	mov    rdi,QWORD PTR [rbp-0x60]
  109c32:	48 8b 75 a8          	mov    rsi,QWORD PTR [rbp-0x58]
  109c36:	4c 8d 85 40 ff ff ff 	lea    r8,[rbp-0xc0]
  109c3d:	41 b9 04 00 00 00    	mov    r9d,0x4
  109c43:	48 8b 4d c0          	mov    rcx,QWORD PTR [rbp-0x40]
  109c47:	ff 15 a3 1a 02 00    	call   QWORD PTR [rip+0x21aa3]        # 12b6f0 <_RNvNtCsditBB9aEfcw_17compiler_builtins3mem7memmove+0xc0>
  109c4d:	49 89 c7             	mov    r15,rax
  109c50:	48 89 d0             	mov    rax,rdx
  109c53:	e9 f4 00 00 00       	jmp    109d4c <_RINvNtNtCs9TWaYOb1t6o_4core3fmt5float29float_to_decimal_common_exactC3f16EB6_+0x39c>
  109c58:	66 c7 85 40 ff ff ff 	mov    WORD PTR [rbp-0xc0],0x2
  109c5f:	02 00 
  109c61:	48 8d 05 41 8e ff ff 	lea    rax,[rip+0xffffffffffff8e41]        # 102aa9 <_RNvNtNtNtCs9TWaYOb1t6o_4core7unicode12unicode_data9uppercase17BITSET_CHUNKS_MAP+0x2d2>
  109c68:	48 89 85 48 ff ff ff 	mov    QWORD PTR [rbp-0xb8],rax
  109c6f:	48 c7 85 50 ff ff ff 	mov    QWORD PTR [rbp-0xb0],0x3
  109c76:	03 00 00 00 
  109c7a:	bb 01 00 00 00       	mov    ebx,0x1
  109c7f:	4c 8d bd 40 ff ff ff 	lea    r15,[rbp-0xc0]
  109c86:	45 31 f6             	xor    r14d,r14d
  109c89:	b8 01 00 00 00       	mov    eax,0x1
  109c8e:	e9 bd 00 00 00       	jmp    109d50 <_RINvNtNtCs9TWaYOb1t6o_4core3fmt5float29float_to_decimal_common_exactC3f16EB6_+0x3a0>
  109c93:	48 8d 7d a0          	lea    rdi,[rbp-0x60]
  109c97:	48 8d b5 20 ff ff ff 	lea    rsi,[rbp-0xe0]
  109c9e:	48 8d 95 20 fb ff ff 	lea    rdx,[rbp-0x4e0]
  109ca5:	4c 89 e1             	mov    rcx,r12
  109ca8:	45 89 e8             	mov    r8d,r13d
  109cab:	ff 15 0f 1b 02 00    	call   QWORD PTR [rip+0x21b0f]        # 12b7c0 <_RNvNtCsditBB9aEfcw_17compiler_builtins3mem7memmove+0x190>
  109cb1:	0f b7 55 b0          	movzx  edx,WORD PTR [rbp-0x50]
  109cb5:	66 44 39 ea          	cmp    dx,r13w
  109cb9:	0f 8f 6f ff ff ff    	jg     109c2e <_RINvNtNtCs9TWaYOb1t6o_4core3fmt5float29float_to_decimal_common_exactC3f16EB6_+0x27e>
  109cbf:	66 c7 85 40 ff ff ff 	mov    WORD PTR [rbp-0xc0],0x2
  109cc6:	02 00 
  109cc8:	66 83 7d cc 00       	cmp    WORD PTR [rbp-0x34],0x0
  109ccd:	48 8b 4d c0          	mov    rcx,QWORD PTR [rbp-0x40]
  109cd1:	74 5b                	je     109d2e <_RINvNtNtCs9TWaYOb1t6o_4core3fmt5float29float_to_decimal_common_exactC3f16EB6_+0x37e>
  109cd3:	48 8d 05 d6 8d ff ff 	lea    rax,[rip+0xffffffffffff8dd6]        # 102ab0 <_RNvNtNtNtCs9TWaYOb1t6o_4core7unicode12unicode_data9uppercase17BITSET_CHUNKS_MAP+0x2d9>
  109cda:	48 89 85 48 ff ff ff 	mov    QWORD PTR [rbp-0xb8],rax
  109ce1:	48 c7 85 50 ff ff ff 	mov    QWORD PTR [rbp-0xb0],0x2
  109ce8:	02 00 00 00 
  109cec:	66 c7 85 58 ff ff ff 	mov    WORD PTR [rbp-0xa8],0x0
  109cf3:	00 00 
  109cf5:	48 89 8d 60 ff ff ff 	mov    QWORD PTR [rbp-0xa0],rcx
  109cfc:	b8 02 00 00 00       	mov    eax,0x2
  109d01:	eb 49                	jmp    109d4c <_RINvNtNtCs9TWaYOb1t6o_4core3fmt5float29float_to_decimal_common_exactC3f16EB6_+0x39c>
  109d03:	66 c7 85 40 ff ff ff 	mov    WORD PTR [rbp-0xc0],0x2
  109d0a:	02 00 
  109d0c:	48 8d 0d 99 8d ff ff 	lea    rcx,[rip+0xffffffffffff8d99]        # 102aac <_RNvNtNtNtCs9TWaYOb1t6o_4core7unicode12unicode_data9uppercase17BITSET_CHUNKS_MAP+0x2d5>
  109d13:	48 89 8d 48 ff ff ff 	mov    QWORD PTR [rbp-0xb8],rcx
  109d1a:	48 c7 85 50 ff ff ff 	mov    QWORD PTR [rbp-0xb0],0x3
  109d21:	03 00 00 00 
  109d25:	4c 8d bd 40 ff ff ff 	lea    r15,[rbp-0xc0]
  109d2c:	eb 22                	jmp    109d50 <_RINvNtNtCs9TWaYOb1t6o_4core3fmt5float29float_to_decimal_common_exactC3f16EB6_+0x3a0>
  109d2e:	48 8d 05 7a 8d ff ff 	lea    rax,[rip+0xffffffffffff8d7a]        # 102aaf <_RNvNtNtNtCs9TWaYOb1t6o_4core7unicode12unicode_data9uppercase17BITSET_CHUNKS_MAP+0x2d8>
  109d35:	48 89 85 48 ff ff ff 	mov    QWORD PTR [rbp-0xb8],rax
  109d3c:	48 c7 85 50 ff ff ff 	mov    QWORD PTR [rbp-0xb0],0x1
  109d43:	01 00 00 00 
  109d47:	b8 01 00 00 00       	mov    eax,0x1
  109d4c:	48 8b 7d d0          	mov    rdi,QWORD PTR [rbp-0x30]
  109d50:	48 89 5d a0          	mov    QWORD PTR [rbp-0x60],rbx
  109d54:	4c 89 75 a8          	mov    QWORD PTR [rbp-0x58],r14
  109d58:	4c 89 7d b0          	mov    QWORD PTR [rbp-0x50],r15
  109d5c:	48 89 45 b8          	mov    QWORD PTR [rbp-0x48],rax
  109d60:	48 8d 75 a0          	lea    rsi,[rbp-0x60]
  109d64:	e8 a7 80 00 00       	call   111e10 <_RNvMsa_NtCs9TWaYOb1t6o_4core3fmtNtB5_9Formatter19pad_formatted_parts>
  109d69:	48 81 c4 b8 04 00 00 	add    rsp,0x4b8
  109d70:	5b                   	pop    rbx
  109d71:	41 5c                	pop    r12
  109d73:	41 5d                	pop    r13
  109d75:	41 5e                	pop    r14
  109d77:	41 5f                	pop    r15
  109d79:	5d                   	pop    rbp
  109d7a:	c3                   	ret
  109d7b:	48 8d 0d 2d 8d ff ff 	lea    rcx,[rip+0xffffffffffff8d2d]        # 102aaf <_RNvNtNtNtCs9TWaYOb1t6o_4core7unicode12unicode_data9uppercase17BITSET_CHUNKS_MAP+0x2d8>
  109d82:	48 89 8d 48 ff ff ff 	mov    QWORD PTR [rbp-0xb8],rcx
  109d89:	48 c7 85 50 ff ff ff 	mov    QWORD PTR [rbp-0xb0],0x1
  109d90:	01 00 00 00 
  109d94:	4c 8d bd 40 ff ff ff 	lea    r15,[rbp-0xc0]
  109d9b:	eb b3                	jmp    109d50 <_RINvNtNtCs9TWaYOb1t6o_4core3fmt5float29float_to_decimal_common_exactC3f16EB6_+0x3a0>
  109d9d:	48 8d 3d 63 8d ff ff 	lea    rdi,[rip+0xffffffffffff8d63]        # 102b07 <_RNvNtNtNtCs9TWaYOb1t6o_4core7unicode12unicode_data9uppercase17BITSET_CHUNKS_MAP+0x330>
  109da4:	48 8d 15 f5 1c 02 00 	lea    rdx,[rip+0x21cf5]        # 12baa0 <_RNvNtCslB4Q0PG65QT_6hlq_os10vga_writer9GL_VGA_WT+0x158>
  109dab:	be 25 00 00 00       	mov    esi,0x25
  109db0:	ff 15 2a 19 02 00    	call   QWORD PTR [rip+0x2192a]        # 12b6e0 <_RNvNtCsditBB9aEfcw_17compiler_builtins3mem7memmove+0xb0>

Disassembly of section .text._RINvNtNtCs9TWaYOb1t6o_4core3fmt5float29float_to_decimal_common_exactdEB6_:

0000000000109dc0 <_RINvNtNtCs9TWaYOb1t6o_4core3fmt5float29float_to_decimal_common_exactdEB6_>:
  109dc0:	55                   	push   rbp
  109dc1:	48 89 e5             	mov    rbp,rsp
  109dc4:	41 57                	push   r15
  109dc6:	41 56                	push   r14
  109dc8:	41 55                	push   r13
  109dca:	41 54                	push   r12
  109dcc:	53                   	push   rbx
  109dcd:	48 81 ec b8 04 00 00 	sub    rsp,0x4b8
  109dd4:	49 b9 00 00 00 00 00 	movabs r9,0x10000000000000
  109ddb:	00 10 00 
  109dde:	49 89 f0             	mov    r8,rsi
  109de1:	49 c1 e8 34          	shr    r8,0x34
  109de5:	48 8d 04 36          	lea    rax,[rsi+rsi*1]
  109de9:	49 bb fe ff ff ff ff 	movabs r11,0x1ffffffffffffe
  109df0:	ff 1f 00 
  109df3:	49 21 c3             	and    r11,rax
  109df6:	4d 8d 51 ff          	lea    r10,[r9-0x1]
  109dfa:	49 21 f2             	and    r10,rsi
  109dfd:	4b 8d 04 0a          	lea    rax,[r10+r9*1]
  109e01:	66 41 81 e0 ff 07    	and    r8w,0x7ff
  109e07:	49 0f 44 c3          	cmove  rax,r11
  109e0b:	41 89 c4             	mov    r12d,eax
  109e0e:	41 83 e4 01          	and    r12d,0x1
  109e12:	49 bb 00 00 00 00 00 	movabs r11,0x7ff0000000000000
  109e19:	00 f0 7f 
  109e1c:	48 89 f3             	mov    rbx,rsi
  109e1f:	4c 21 db             	and    rbx,r11
  109e22:	45 31 f6             	xor    r14d,r14d
  109e25:	4d 85 d2             	test   r10,r10
  109e28:	41 0f 94 c6          	sete   r14b
  109e2c:	45 89 f2             	mov    r10d,r14d
  109e2f:	41 80 f2 03          	xor    r10b,0x3
  109e33:	48 85 db             	test   rbx,rbx
  109e36:	45 0f b6 d2          	movzx  r10d,r10b
  109e3a:	41 bf 04 00 00 00    	mov    r15d,0x4
  109e40:	45 0f 44 fa          	cmove  r15d,r10d
  109e44:	4c 39 db             	cmp    rbx,r11
  109e47:	45 0f 44 fe          	cmove  r15d,r14d
  109e4b:	45 0f b6 d7          	movzx  r10d,r15b
  109e4f:	4c 8d 1d 5e 71 ff ff 	lea    r11,[rip+0xffffffffffff715e]        # 100fb4 <gdt64.pointer+0xf8c>
  109e56:	4f 63 14 93          	movsxd r10,DWORD PTR [r11+r10*4]
  109e5a:	4d 01 da             	add    r10,r11
  109e5d:	44 0f b7 f9          	movzx  r15d,cx
  109e61:	41 ff e2             	jmp    r10
  109e64:	41 b4 02             	mov    r12b,0x2
  109e67:	eb 53                	jmp    109ebc <_RINvNtNtCs9TWaYOb1t6o_4core3fmt5float29float_to_decimal_common_exactdEB6_+0xfc>
  109e69:	4c 8d 14 00          	lea    r10,[rax+rax*1]
  109e6d:	45 31 db             	xor    r11d,r11d
  109e70:	4c 39 c8             	cmp    rax,r9
  109e73:	41 0f 94 c3          	sete   r11b
  109e77:	48 b8 00 00 00 00 00 	movabs rax,0x40000000000000
  109e7e:	00 40 00 
  109e81:	49 0f 45 c2          	cmovne rax,r10
  109e85:	4d 8d 4b 01          	lea    r9,[r11+0x1]
  109e89:	45 0f b7 c0          	movzx  r8d,r8w
  109e8d:	45 29 d8             	sub    r8d,r11d
  109e90:	41 81 c0 cc fb ff ff 	add    r8d,0xfffffbcc
  109e97:	41 80 f4 01          	xor    r12b,0x1
  109e9b:	eb 1f                	jmp    109ebc <_RINvNtNtCs9TWaYOb1t6o_4core3fmt5float29float_to_decimal_common_exactdEB6_+0xfc>
  109e9d:	41 b4 04             	mov    r12b,0x4
  109ea0:	eb 1a                	jmp    109ebc <_RINvNtNtCs9TWaYOb1t6o_4core3fmt5float29float_to_decimal_common_exactdEB6_+0xfc>
  109ea2:	45 0f b7 c0          	movzx  r8d,r8w
  109ea6:	41 81 c0 cd fb ff ff 	add    r8d,0xfffffbcd
  109ead:	41 80 f4 01          	xor    r12b,0x1
  109eb1:	41 b9 01 00 00 00    	mov    r9d,0x1
  109eb7:	eb 03                	jmp    109ebc <_RINvNtNtCs9TWaYOb1t6o_4core3fmt5float29float_to_decimal_common_exactdEB6_+0xfc>
  109eb9:	41 b4 03             	mov    r12b,0x3
  109ebc:	48 89 85 20 ff ff ff 	mov    QWORD PTR [rbp-0xe0],rax
  109ec3:	48 c7 85 28 ff ff ff 	mov    QWORD PTR [rbp-0xd8],0x1
  109eca:	01 00 00 00 
  109ece:	4c 89 8d 30 ff ff ff 	mov    QWORD PTR [rbp-0xd0],r9
  109ed5:	66 44 89 85 38 ff ff 	mov    WORD PTR [rbp-0xc8],r8w
  109edc:	ff 
  109edd:	44 88 a5 3a ff ff ff 	mov    BYTE PTR [rbp-0xc6],r12b
  109ee4:	41 80 fc 01          	cmp    r12b,0x1
  109ee8:	0f 86 8f 00 00 00    	jbe    109f7d <_RINvNtNtCs9TWaYOb1t6o_4core3fmt5float29float_to_decimal_common_exactdEB6_+0x1bd>
  109eee:	41 80 c4 fe          	add    r12b,0xfe
  109ef2:	0f 84 8c 01 00 00    	je     10a084 <_RINvNtNtCs9TWaYOb1t6o_4core3fmt5float29float_to_decimal_common_exactdEB6_+0x2c4>
  109ef8:	49 89 f6             	mov    r14,rsi
  109efb:	49 c1 ee 3f          	shr    r14,0x3f
  109eff:	48 85 f6             	test   rsi,rsi
  109f02:	48 8d 1d 9e 8b ff ff 	lea    rbx,[rip+0xffffffffffff8b9e]        # 102aa7 <_RNvNtNtNtCs9TWaYOb1t6o_4core7unicode12unicode_data9uppercase17BITSET_CHUNKS_MAP+0x2d0>
  109f09:	48 8d 35 98 8b ff ff 	lea    rsi,[rip+0xffffffffffff8b98]        # 102aa8 <_RNvNtNtNtCs9TWaYOb1t6o_4core7unicode12unicode_data9uppercase17BITSET_CHUNKS_MAP+0x2d1>
  109f10:	48 0f 48 f3          	cmovs  rsi,rbx
  109f14:	b8 01 00 00 00       	mov    eax,0x1
  109f19:	48 0f 49 d8          	cmovns rbx,rax
  109f1d:	84 d2                	test   dl,dl
  109f1f:	4c 0f 45 f0          	cmovne r14,rax
  109f23:	48 0f 45 de          	cmovne rbx,rsi
  109f27:	41 80 fc 02          	cmp    r12b,0x2
  109f2b:	0f 85 fe 01 00 00    	jne    10a12f <_RINvNtNtCs9TWaYOb1t6o_4core3fmt5float29float_to_decimal_common_exactdEB6_+0x36f>
  109f31:	66 c7 85 40 ff ff ff 	mov    WORD PTR [rbp-0xc0],0x2
  109f38:	02 00 
  109f3a:	66 85 c9             	test   cx,cx
  109f3d:	0f 84 64 02 00 00    	je     10a1a7 <_RINvNtNtCs9TWaYOb1t6o_4core3fmt5float29float_to_decimal_common_exactdEB6_+0x3e7>
  109f43:	48 8d 05 66 8b ff ff 	lea    rax,[rip+0xffffffffffff8b66]        # 102ab0 <_RNvNtNtNtCs9TWaYOb1t6o_4core7unicode12unicode_data9uppercase17BITSET_CHUNKS_MAP+0x2d9>
  109f4a:	48 89 85 48 ff ff ff 	mov    QWORD PTR [rbp-0xb8],rax
  109f51:	48 c7 85 50 ff ff ff 	mov    QWORD PTR [rbp-0xb0],0x2
  109f58:	02 00 00 00 
  109f5c:	66 c7 85 58 ff ff ff 	mov    WORD PTR [rbp-0xa8],0x0
  109f63:	00 00 
  109f65:	4c 89 bd 60 ff ff ff 	mov    QWORD PTR [rbp-0xa0],r15
  109f6c:	b8 02 00 00 00       	mov    eax,0x2
  109f71:	4c 8d bd 40 ff ff ff 	lea    r15,[rbp-0xc0]
  109f78:	e9 ff 01 00 00       	jmp    10a17c <_RINvNtNtCs9TWaYOb1t6o_4core3fmt5float29float_to_decimal_common_exactdEB6_+0x3bc>
  109f7d:	49 89 f6             	mov    r14,rsi
  109f80:	49 c1 ee 3f          	shr    r14,0x3f
  109f84:	48 85 f6             	test   rsi,rsi
  109f87:	48 8d 1d 19 8b ff ff 	lea    rbx,[rip+0xffffffffffff8b19]        # 102aa7 <_RNvNtNtNtCs9TWaYOb1t6o_4core7unicode12unicode_data9uppercase17BITSET_CHUNKS_MAP+0x2d0>
  109f8e:	48 8d 05 13 8b ff ff 	lea    rax,[rip+0xffffffffffff8b13]        # 102aa8 <_RNvNtNtNtCs9TWaYOb1t6o_4core7unicode12unicode_data9uppercase17BITSET_CHUNKS_MAP+0x2d1>
  109f95:	48 0f 48 c3          	cmovs  rax,rbx
  109f99:	be 01 00 00 00       	mov    esi,0x1
  109f9e:	48 0f 49 de          	cmovns rbx,rsi
  109fa2:	84 d2                	test   dl,dl
  109fa4:	4c 0f 45 f6          	cmovne r14,rsi
  109fa8:	48 0f 45 d8          	cmovne rbx,rax
  109fac:	66 45 85 c0          	test   r8w,r8w
  109fb0:	48 c7 c0 f4 ff ff ff 	mov    rax,0xfffffffffffffff4
  109fb7:	ba 05 00 00 00       	mov    edx,0x5
  109fbc:	48 0f 48 d0          	cmovs  rdx,rax
  109fc0:	4d 0f bf e0          	movsx  r12,r8w
  109fc4:	4c 0f af e2          	imul   r12,rdx
  109fc8:	49 81 fc c0 3e 00 00 	cmp    r12,0x3ec0
  109fcf:	0f 83 f4 01 00 00    	jae    10a1c9 <_RINvNtNtCs9TWaYOb1t6o_4core3fmt5float29float_to_decimal_common_exactdEB6_+0x409>
  109fd5:	4c 89 7d c0          	mov    QWORD PTR [rbp-0x40],r15
  109fd9:	48 89 7d d0          	mov    QWORD PTR [rbp-0x30],rdi
  109fdd:	49 c1 ec 04          	shr    r12,0x4
  109fe1:	49 83 c4 15          	add    r12,0x15
  109fe5:	89 c8                	mov    eax,ecx
  109fe7:	f7 d8                	neg    eax
  109fe9:	89 4d cc             	mov    DWORD PTR [rbp-0x34],ecx
  109fec:	66 85 c9             	test   cx,cx
  109fef:	41 bd 00 80 00 00    	mov    r13d,0x8000
  109ff5:	44 0f 49 e8          	cmovns r13d,eax
  109ff9:	4c 8d bd 40 ff ff ff 	lea    r15,[rbp-0xc0]
  10a000:	48 8d b5 20 ff ff ff 	lea    rsi,[rbp-0xe0]
  10a007:	48 8d 95 20 fb ff ff 	lea    rdx,[rbp-0x4e0]
  10a00e:	4c 89 ff             	mov    rdi,r15
  10a011:	4c 89 e1             	mov    rcx,r12
  10a014:	45 89 e8             	mov    r8d,r13d
  10a017:	ff 15 a3 16 02 00    	call   QWORD PTR [rip+0x216a3]        # 12b6c0 <_RNvNtCsditBB9aEfcw_17compiler_builtins3mem7memmove+0x90>
  10a01d:	48 83 bd 40 ff ff ff 	cmp    QWORD PTR [rbp-0xc0],0x0
  10a024:	00 
  10a025:	0f 84 94 00 00 00    	je     10a0bf <_RINvNtNtCs9TWaYOb1t6o_4core3fmt5float29float_to_decimal_common_exactdEB6_+0x2ff>
  10a02b:	48 8b 85 50 ff ff ff 	mov    rax,QWORD PTR [rbp-0xb0]
  10a032:	48 89 45 b0          	mov    QWORD PTR [rbp-0x50],rax
  10a036:	48 8b 85 40 ff ff ff 	mov    rax,QWORD PTR [rbp-0xc0]
  10a03d:	48 8b 8d 48 ff ff ff 	mov    rcx,QWORD PTR [rbp-0xb8]
  10a044:	48 89 4d a8          	mov    QWORD PTR [rbp-0x58],rcx
  10a048:	48 89 45 a0          	mov    QWORD PTR [rbp-0x60],rax
  10a04c:	0f b7 55 b0          	movzx  edx,WORD PTR [rbp-0x50]
  10a050:	66 44 39 ea          	cmp    dx,r13w
  10a054:	0f 8e 91 00 00 00    	jle    10a0eb <_RINvNtNtCs9TWaYOb1t6o_4core3fmt5float29float_to_decimal_common_exactdEB6_+0x32b>
  10a05a:	48 8b 7d a0          	mov    rdi,QWORD PTR [rbp-0x60]
  10a05e:	48 8b 75 a8          	mov    rsi,QWORD PTR [rbp-0x58]
  10a062:	4c 8d 85 40 ff ff ff 	lea    r8,[rbp-0xc0]
  10a069:	41 b9 04 00 00 00    	mov    r9d,0x4
  10a06f:	48 8b 4d c0          	mov    rcx,QWORD PTR [rbp-0x40]
  10a073:	ff 15 77 16 02 00    	call   QWORD PTR [rip+0x21677]        # 12b6f0 <_RNvNtCsditBB9aEfcw_17compiler_builtins3mem7memmove+0xc0>
  10a079:	49 89 c7             	mov    r15,rax
  10a07c:	48 89 d0             	mov    rax,rdx
  10a07f:	e9 f4 00 00 00       	jmp    10a178 <_RINvNtNtCs9TWaYOb1t6o_4core3fmt5float29float_to_decimal_common_exactdEB6_+0x3b8>
  10a084:	66 c7 85 40 ff ff ff 	mov    WORD PTR [rbp-0xc0],0x2
  10a08b:	02 00 
  10a08d:	48 8d 05 15 8a ff ff 	lea    rax,[rip+0xffffffffffff8a15]        # 102aa9 <_RNvNtNtNtCs9TWaYOb1t6o_4core7unicode12unicode_data9uppercase17BITSET_CHUNKS_MAP+0x2d2>
  10a094:	48 89 85 48 ff ff ff 	mov    QWORD PTR [rbp-0xb8],rax
  10a09b:	48 c7 85 50 ff ff ff 	mov    QWORD PTR [rbp-0xb0],0x3
  10a0a2:	03 00 00 00 
  10a0a6:	bb 01 00 00 00       	mov    ebx,0x1
  10a0ab:	4c 8d bd 40 ff ff ff 	lea    r15,[rbp-0xc0]
  10a0b2:	45 31 f6             	xor    r14d,r14d
  10a0b5:	b8 01 00 00 00       	mov    eax,0x1
  10a0ba:	e9 bd 00 00 00       	jmp    10a17c <_RINvNtNtCs9TWaYOb1t6o_4core3fmt5float29float_to_decimal_common_exactdEB6_+0x3bc>
  10a0bf:	48 8d 7d a0          	lea    rdi,[rbp-0x60]
  10a0c3:	48 8d b5 20 ff ff ff 	lea    rsi,[rbp-0xe0]
  10a0ca:	48 8d 95 20 fb ff ff 	lea    rdx,[rbp-0x4e0]
  10a0d1:	4c 89 e1             	mov    rcx,r12
  10a0d4:	45 89 e8             	mov    r8d,r13d
  10a0d7:	ff 15 e3 16 02 00    	call   QWORD PTR [rip+0x216e3]        # 12b7c0 <_RNvNtCsditBB9aEfcw_17compiler_builtins3mem7memmove+0x190>
  10a0dd:	0f b7 55 b0          	movzx  edx,WORD PTR [rbp-0x50]
  10a0e1:	66 44 39 ea          	cmp    dx,r13w
  10a0e5:	0f 8f 6f ff ff ff    	jg     10a05a <_RINvNtNtCs9TWaYOb1t6o_4core3fmt5float29float_to_decimal_common_exactdEB6_+0x29a>
  10a0eb:	66 c7 85 40 ff ff ff 	mov    WORD PTR [rbp-0xc0],0x2
  10a0f2:	02 00 
  10a0f4:	66 83 7d cc 00       	cmp    WORD PTR [rbp-0x34],0x0
  10a0f9:	74 5f                	je     10a15a <_RINvNtNtCs9TWaYOb1t6o_4core3fmt5float29float_to_decimal_common_exactdEB6_+0x39a>
  10a0fb:	48 8d 05 ae 89 ff ff 	lea    rax,[rip+0xffffffffffff89ae]        # 102ab0 <_RNvNtNtNtCs9TWaYOb1t6o_4core7unicode12unicode_data9uppercase17BITSET_CHUNKS_MAP+0x2d9>
  10a102:	48 89 85 48 ff ff ff 	mov    QWORD PTR [rbp-0xb8],rax
  10a109:	48 c7 85 50 ff ff ff 	mov    QWORD PTR [rbp-0xb0],0x2
  10a110:	02 00 00 00 
  10a114:	66 c7 85 58 ff ff ff 	mov    WORD PTR [rbp-0xa8],0x0
  10a11b:	00 00 
  10a11d:	48 8b 45 c0          	mov    rax,QWORD PTR [rbp-0x40]
  10a121:	48 89 85 60 ff ff ff 	mov    QWORD PTR [rbp-0xa0],rax
  10a128:	b8 02 00 00 00       	mov    eax,0x2
  10a12d:	eb 49                	jmp    10a178 <_RINvNtNtCs9TWaYOb1t6o_4core3fmt5float29float_to_decimal_common_exactdEB6_+0x3b8>
  10a12f:	66 c7 85 40 ff ff ff 	mov    WORD PTR [rbp-0xc0],0x2
  10a136:	02 00 
  10a138:	48 8d 0d 6d 89 ff ff 	lea    rcx,[rip+0xffffffffffff896d]        # 102aac <_RNvNtNtNtCs9TWaYOb1t6o_4core7unicode12unicode_data9uppercase17BITSET_CHUNKS_MAP+0x2d5>
  10a13f:	48 89 8d 48 ff ff ff 	mov    QWORD PTR [rbp-0xb8],rcx
  10a146:	48 c7 85 50 ff ff ff 	mov    QWORD PTR [rbp-0xb0],0x3
  10a14d:	03 00 00 00 
  10a151:	4c 8d bd 40 ff ff ff 	lea    r15,[rbp-0xc0]
  10a158:	eb 22                	jmp    10a17c <_RINvNtNtCs9TWaYOb1t6o_4core3fmt5float29float_to_decimal_common_exactdEB6_+0x3bc>
  10a15a:	48 8d 05 4e 89 ff ff 	lea    rax,[rip+0xffffffffffff894e]        # 102aaf <_RNvNtNtNtCs9TWaYOb1t6o_4core7unicode12unicode_data9uppercase17BITSET_CHUNKS_MAP+0x2d8>
  10a161:	48 89 85 48 ff ff ff 	mov    QWORD PTR [rbp-0xb8],rax
  10a168:	48 c7 85 50 ff ff ff 	mov    QWORD PTR [rbp-0xb0],0x1
  10a16f:	01 00 00 00 
  10a173:	b8 01 00 00 00       	mov    eax,0x1
  10a178:	48 8b 7d d0          	mov    rdi,QWORD PTR [rbp-0x30]
  10a17c:	48 89 5d a0          	mov    QWORD PTR [rbp-0x60],rbx
  10a180:	4c 89 75 a8          	mov    QWORD PTR [rbp-0x58],r14
  10a184:	4c 89 7d b0          	mov    QWORD PTR [rbp-0x50],r15
  10a188:	48 89 45 b8          	mov    QWORD PTR [rbp-0x48],rax
  10a18c:	48 8d 75 a0          	lea    rsi,[rbp-0x60]
  10a190:	e8 7b 7c 00 00       	call   111e10 <_RNvMsa_NtCs9TWaYOb1t6o_4core3fmtNtB5_9Formatter19pad_formatted_parts>
  10a195:	48 81 c4 b8 04 00 00 	add    rsp,0x4b8
  10a19c:	5b                   	pop    rbx
  10a19d:	41 5c                	pop    r12
  10a19f:	41 5d                	pop    r13
  10a1a1:	41 5e                	pop    r14
  10a1a3:	41 5f                	pop    r15
  10a1a5:	5d                   	pop    rbp
  10a1a6:	c3                   	ret
  10a1a7:	48 8d 0d 01 89 ff ff 	lea    rcx,[rip+0xffffffffffff8901]        # 102aaf <_RNvNtNtNtCs9TWaYOb1t6o_4core7unicode12unicode_data9uppercase17BITSET_CHUNKS_MAP+0x2d8>
  10a1ae:	48 89 8d 48 ff ff ff 	mov    QWORD PTR [rbp-0xb8],rcx
  10a1b5:	48 c7 85 50 ff ff ff 	mov    QWORD PTR [rbp-0xb0],0x1
  10a1bc:	01 00 00 00 
  10a1c0:	4c 8d bd 40 ff ff ff 	lea    r15,[rbp-0xc0]
  10a1c7:	eb b3                	jmp    10a17c <_RINvNtNtCs9TWaYOb1t6o_4core3fmt5float29float_to_decimal_common_exactdEB6_+0x3bc>
  10a1c9:	48 8d 3d 37 89 ff ff 	lea    rdi,[rip+0xffffffffffff8937]        # 102b07 <_RNvNtNtNtCs9TWaYOb1t6o_4core7unicode12unicode_data9uppercase17BITSET_CHUNKS_MAP+0x330>
  10a1d0:	48 8d 15 c9 18 02 00 	lea    rdx,[rip+0x218c9]        # 12baa0 <_RNvNtCslB4Q0PG65QT_6hlq_os10vga_writer9GL_VGA_WT+0x158>
  10a1d7:	be 25 00 00 00       	mov    esi,0x25
  10a1dc:	ff 15 fe 14 02 00    	call   QWORD PTR [rip+0x214fe]        # 12b6e0 <_RNvNtCsditBB9aEfcw_17compiler_builtins3mem7memmove+0xb0>

Disassembly of section .text._RINvNtNtCs9TWaYOb1t6o_4core3fmt5float29float_to_decimal_common_exactfEB6_:

000000000010a1f0 <_RINvNtNtCs9TWaYOb1t6o_4core3fmt5float29float_to_decimal_common_exactfEB6_>:
  10a1f0:	55                   	push   rbp
  10a1f1:	48 89 e5             	mov    rbp,rsp
  10a1f4:	41 57                	push   r15
  10a1f6:	41 56                	push   r14
  10a1f8:	41 55                	push   r13
  10a1fa:	41 54                	push   r12
  10a1fc:	53                   	push   rbx
  10a1fd:	48 81 ec b8 04 00 00 	sub    rsp,0x4b8
  10a204:	41 89 f0             	mov    r8d,esi
  10a207:	41 c1 e8 17          	shr    r8d,0x17
  10a20b:	44 8d 14 36          	lea    r10d,[rsi+rsi*1]
  10a20f:	41 81 e2 fe ff ff 00 	and    r10d,0xfffffe
  10a216:	41 89 f1             	mov    r9d,esi
  10a219:	41 81 e1 ff ff 7f 00 	and    r9d,0x7fffff
  10a220:	41 8d 81 00 00 80 00 	lea    eax,[r9+0x800000]
  10a227:	66 41 81 e0 ff 00    	and    r8w,0xff
  10a22d:	41 0f 44 c2          	cmove  eax,r10d
  10a231:	41 89 c7             	mov    r15d,eax
  10a234:	41 83 e7 01          	and    r15d,0x1
  10a238:	41 89 f2             	mov    r10d,esi
  10a23b:	41 81 e2 00 00 80 7f 	and    r10d,0x7f800000
  10a242:	45 31 db             	xor    r11d,r11d
  10a245:	45 85 c9             	test   r9d,r9d
  10a248:	41 0f 94 c3          	sete   r11b
  10a24c:	45 89 d9             	mov    r9d,r11d
  10a24f:	41 80 f1 03          	xor    r9b,0x3
  10a253:	45 85 d2             	test   r10d,r10d
  10a256:	45 0f b6 c9          	movzx  r9d,r9b
  10a25a:	bb 04 00 00 00       	mov    ebx,0x4
  10a25f:	41 0f 44 d9          	cmove  ebx,r9d
  10a263:	44 0f b7 e9          	movzx  r13d,cx
  10a267:	41 81 fa 00 00 80 7f 	cmp    r10d,0x7f800000
  10a26e:	41 0f 44 db          	cmove  ebx,r11d
  10a272:	44 0f b6 cb          	movzx  r9d,bl
  10a276:	4c 8d 15 4b 6d ff ff 	lea    r10,[rip+0xffffffffffff6d4b]        # 100fc8 <gdt64.pointer+0xfa0>
  10a27d:	4f 63 0c 8a          	movsxd r9,DWORD PTR [r10+r9*4]
  10a281:	4d 01 d1             	add    r9,r10
  10a284:	41 ff e1             	jmp    r9
  10a287:	41 b7 02             	mov    r15b,0x2
  10a28a:	eb 51                	jmp    10a2dd <_RINvNtNtCs9TWaYOb1t6o_4core3fmt5float29float_to_decimal_common_exactfEB6_+0xed>
  10a28c:	44 8d 0c 00          	lea    r9d,[rax+rax*1]
  10a290:	45 31 d2             	xor    r10d,r10d
  10a293:	48 3d 00 00 80 00    	cmp    rax,0x800000
  10a299:	41 0f 94 c2          	sete   r10b
  10a29d:	b8 00 00 00 02       	mov    eax,0x2000000
  10a2a2:	49 0f 45 c1          	cmovne rax,r9
  10a2a6:	4d 8d 4a 01          	lea    r9,[r10+0x1]
  10a2aa:	41 81 f2 69 ff ff ff 	xor    r10d,0xffffff69
  10a2b1:	45 0f b7 c0          	movzx  r8d,r8w
  10a2b5:	45 01 d0             	add    r8d,r10d
  10a2b8:	41 80 f7 01          	xor    r15b,0x1
  10a2bc:	eb 1f                	jmp    10a2dd <_RINvNtNtCs9TWaYOb1t6o_4core3fmt5float29float_to_decimal_common_exactfEB6_+0xed>
  10a2be:	41 b7 04             	mov    r15b,0x4
  10a2c1:	eb 1a                	jmp    10a2dd <_RINvNtNtCs9TWaYOb1t6o_4core3fmt5float29float_to_decimal_common_exactfEB6_+0xed>
  10a2c3:	45 0f b7 c0          	movzx  r8d,r8w
  10a2c7:	41 81 c0 6a ff ff ff 	add    r8d,0xffffff6a
  10a2ce:	41 80 f7 01          	xor    r15b,0x1
  10a2d2:	41 b9 01 00 00 00    	mov    r9d,0x1
  10a2d8:	eb 03                	jmp    10a2dd <_RINvNtNtCs9TWaYOb1t6o_4core3fmt5float29float_to_decimal_common_exactfEB6_+0xed>
  10a2da:	41 b7 03             	mov    r15b,0x3
  10a2dd:	48 89 85 20 ff ff ff 	mov    QWORD PTR [rbp-0xe0],rax
  10a2e4:	48 c7 85 28 ff ff ff 	mov    QWORD PTR [rbp-0xd8],0x1
  10a2eb:	01 00 00 00 
  10a2ef:	4c 89 8d 30 ff ff ff 	mov    QWORD PTR [rbp-0xd0],r9
  10a2f6:	66 44 89 85 38 ff ff 	mov    WORD PTR [rbp-0xc8],r8w
  10a2fd:	ff 
  10a2fe:	44 88 bd 3a ff ff ff 	mov    BYTE PTR [rbp-0xc6],r15b
  10a305:	41 80 ff 01          	cmp    r15b,0x1
  10a309:	0f 86 8e 00 00 00    	jbe    10a39d <_RINvNtNtCs9TWaYOb1t6o_4core3fmt5float29float_to_decimal_common_exactfEB6_+0x1ad>
  10a30f:	41 80 c7 fe          	add    r15b,0xfe
  10a313:	0f 84 8a 01 00 00    	je     10a4a3 <_RINvNtNtCs9TWaYOb1t6o_4core3fmt5float29float_to_decimal_common_exactfEB6_+0x2b3>
  10a319:	41 89 f6             	mov    r14d,esi
  10a31c:	41 c1 ee 1f          	shr    r14d,0x1f
  10a320:	85 f6                	test   esi,esi
  10a322:	48 8d 1d 7e 87 ff ff 	lea    rbx,[rip+0xffffffffffff877e]        # 102aa7 <_RNvNtNtNtCs9TWaYOb1t6o_4core7unicode12unicode_data9uppercase17BITSET_CHUNKS_MAP+0x2d0>
  10a329:	48 8d 35 78 87 ff ff 	lea    rsi,[rip+0xffffffffffff8778]        # 102aa8 <_RNvNtNtNtCs9TWaYOb1t6o_4core7unicode12unicode_data9uppercase17BITSET_CHUNKS_MAP+0x2d1>
  10a330:	48 0f 48 f3          	cmovs  rsi,rbx
  10a334:	b8 01 00 00 00       	mov    eax,0x1
  10a339:	48 0f 49 d8          	cmovns rbx,rax
  10a33d:	84 d2                	test   dl,dl
  10a33f:	4c 0f 45 f0          	cmovne r14,rax
  10a343:	48 0f 45 de          	cmovne rbx,rsi
  10a347:	41 80 ff 02          	cmp    r15b,0x2
  10a34b:	0f 85 fd 01 00 00    	jne    10a54e <_RINvNtNtCs9TWaYOb1t6o_4core3fmt5float29float_to_decimal_common_exactfEB6_+0x35e>
  10a351:	66 c7 85 40 ff ff ff 	mov    WORD PTR [rbp-0xc0],0x2
  10a358:	02 00 
  10a35a:	66 85 c9             	test   cx,cx
  10a35d:	0f 84 63 02 00 00    	je     10a5c6 <_RINvNtNtCs9TWaYOb1t6o_4core3fmt5float29float_to_decimal_common_exactfEB6_+0x3d6>
  10a363:	48 8d 05 46 87 ff ff 	lea    rax,[rip+0xffffffffffff8746]        # 102ab0 <_RNvNtNtNtCs9TWaYOb1t6o_4core7unicode12unicode_data9uppercase17BITSET_CHUNKS_MAP+0x2d9>
  10a36a:	48 89 85 48 ff ff ff 	mov    QWORD PTR [rbp-0xb8],rax
  10a371:	48 c7 85 50 ff ff ff 	mov    QWORD PTR [rbp-0xb0],0x2
  10a378:	02 00 00 00 
  10a37c:	66 c7 85 58 ff ff ff 	mov    WORD PTR [rbp-0xa8],0x0
  10a383:	00 00 
  10a385:	4c 89 ad 60 ff ff ff 	mov    QWORD PTR [rbp-0xa0],r13
  10a38c:	b8 02 00 00 00       	mov    eax,0x2
  10a391:	4c 8d bd 40 ff ff ff 	lea    r15,[rbp-0xc0]
  10a398:	e9 fe 01 00 00       	jmp    10a59b <_RINvNtNtCs9TWaYOb1t6o_4core3fmt5float29float_to_decimal_common_exactfEB6_+0x3ab>
  10a39d:	41 89 f6             	mov    r14d,esi
  10a3a0:	41 c1 ee 1f          	shr    r14d,0x1f
  10a3a4:	85 f6                	test   esi,esi
  10a3a6:	48 8d 1d fa 86 ff ff 	lea    rbx,[rip+0xffffffffffff86fa]        # 102aa7 <_RNvNtNtNtCs9TWaYOb1t6o_4core7unicode12unicode_data9uppercase17BITSET_CHUNKS_MAP+0x2d0>
  10a3ad:	48 8d 05 f4 86 ff ff 	lea    rax,[rip+0xffffffffffff86f4]        # 102aa8 <_RNvNtNtNtCs9TWaYOb1t6o_4core7unicode12unicode_data9uppercase17BITSET_CHUNKS_MAP+0x2d1>
  10a3b4:	48 0f 48 c3          	cmovs  rax,rbx
  10a3b8:	be 01 00 00 00       	mov    esi,0x1
  10a3bd:	48 0f 49 de          	cmovns rbx,rsi
  10a3c1:	84 d2                	test   dl,dl
  10a3c3:	4c 0f 45 f6          	cmovne r14,rsi
  10a3c7:	48 0f 45 d8          	cmovne rbx,rax
  10a3cb:	66 45 85 c0          	test   r8w,r8w
  10a3cf:	48 c7 c0 f4 ff ff ff 	mov    rax,0xfffffffffffffff4
  10a3d6:	ba 05 00 00 00       	mov    edx,0x5
  10a3db:	48 0f 48 d0          	cmovs  rdx,rax
  10a3df:	4d 0f bf e0          	movsx  r12,r8w
  10a3e3:	4c 0f af e2          	imul   r12,rdx
  10a3e7:	49 81 fc c0 3e 00 00 	cmp    r12,0x3ec0
  10a3ee:	0f 83 f4 01 00 00    	jae    10a5e8 <_RINvNtNtCs9TWaYOb1t6o_4core3fmt5float29float_to_decimal_common_exactfEB6_+0x3f8>
  10a3f4:	4c 89 6d c0          	mov    QWORD PTR [rbp-0x40],r13
  10a3f8:	48 89 7d d0          	mov    QWORD PTR [rbp-0x30],rdi
  10a3fc:	49 c1 ec 04          	shr    r12,0x4
  10a400:	49 83 c4 15          	add    r12,0x15
  10a404:	89 c8                	mov    eax,ecx
  10a406:	f7 d8                	neg    eax
  10a408:	89 4d cc             	mov    DWORD PTR [rbp-0x34],ecx
  10a40b:	66 85 c9             	test   cx,cx
  10a40e:	41 bd 00 80 00 00    	mov    r13d,0x8000
  10a414:	44 0f 49 e8          	cmovns r13d,eax
  10a418:	4c 8d bd 40 ff ff ff 	lea    r15,[rbp-0xc0]
  10a41f:	48 8d b5 20 ff ff ff 	lea    rsi,[rbp-0xe0]
  10a426:	48 8d 95 20 fb ff ff 	lea    rdx,[rbp-0x4e0]
  10a42d:	4c 89 ff             	mov    rdi,r15
  10a430:	4c 89 e1             	mov    rcx,r12
  10a433:	45 89 e8             	mov    r8d,r13d
  10a436:	ff 15 84 12 02 00    	call   QWORD PTR [rip+0x21284]        # 12b6c0 <_RNvNtCsditBB9aEfcw_17compiler_builtins3mem7memmove+0x90>
  10a43c:	48 83 bd 40 ff ff ff 	cmp    QWORD PTR [rbp-0xc0],0x0
  10a443:	00 
  10a444:	0f 84 94 00 00 00    	je     10a4de <_RINvNtNtCs9TWaYOb1t6o_4core3fmt5float29float_to_decimal_common_exactfEB6_+0x2ee>
  10a44a:	48 8b 85 50 ff ff ff 	mov    rax,QWORD PTR [rbp-0xb0]
  10a451:	48 89 45 b0          	mov    QWORD PTR [rbp-0x50],rax
  10a455:	48 8b 85 40 ff ff ff 	mov    rax,QWORD PTR [rbp-0xc0]
  10a45c:	48 8b 8d 48 ff ff ff 	mov    rcx,QWORD PTR [rbp-0xb8]
  10a463:	48 89 4d a8          	mov    QWORD PTR [rbp-0x58],rcx
  10a467:	48 89 45 a0          	mov    QWORD PTR [rbp-0x60],rax
  10a46b:	0f b7 55 b0          	movzx  edx,WORD PTR [rbp-0x50]
  10a46f:	66 44 39 ea          	cmp    dx,r13w
  10a473:	0f 8e 91 00 00 00    	jle    10a50a <_RINvNtNtCs9TWaYOb1t6o_4core3fmt5float29float_to_decimal_common_exactfEB6_+0x31a>
  10a479:	48 8b 7d a0          	mov    rdi,QWORD PTR [rbp-0x60]
  10a47d:	48 8b 75 a8          	mov    rsi,QWORD PTR [rbp-0x58]
  10a481:	4c 8d 85 40 ff ff ff 	lea    r8,[rbp-0xc0]
  10a488:	41 b9 04 00 00 00    	mov    r9d,0x4
  10a48e:	48 8b 4d c0          	mov    rcx,QWORD PTR [rbp-0x40]
  10a492:	ff 15 58 12 02 00    	call   QWORD PTR [rip+0x21258]        # 12b6f0 <_RNvNtCsditBB9aEfcw_17compiler_builtins3mem7memmove+0xc0>
  10a498:	49 89 c7             	mov    r15,rax
  10a49b:	48 89 d0             	mov    rax,rdx
  10a49e:	e9 f4 00 00 00       	jmp    10a597 <_RINvNtNtCs9TWaYOb1t6o_4core3fmt5float29float_to_decimal_common_exactfEB6_+0x3a7>
  10a4a3:	66 c7 85 40 ff ff ff 	mov    WORD PTR [rbp-0xc0],0x2
  10a4aa:	02 00 
  10a4ac:	48 8d 05 f6 85 ff ff 	lea    rax,[rip+0xffffffffffff85f6]        # 102aa9 <_RNvNtNtNtCs9TWaYOb1t6o_4core7unicode12unicode_data9uppercase17BITSET_CHUNKS_MAP+0x2d2>
  10a4b3:	48 89 85 48 ff ff ff 	mov    QWORD PTR [rbp-0xb8],rax
  10a4ba:	48 c7 85 50 ff ff ff 	mov    QWORD PTR [rbp-0xb0],0x3
  10a4c1:	03 00 00 00 
  10a4c5:	bb 01 00 00 00       	mov    ebx,0x1
  10a4ca:	4c 8d bd 40 ff ff ff 	lea    r15,[rbp-0xc0]
  10a4d1:	45 31 f6             	xor    r14d,r14d
  10a4d4:	b8 01 00 00 00       	mov    eax,0x1
  10a4d9:	e9 bd 00 00 00       	jmp    10a59b <_RINvNtNtCs9TWaYOb1t6o_4core3fmt5float29float_to_decimal_common_exactfEB6_+0x3ab>
  10a4de:	48 8d 7d a0          	lea    rdi,[rbp-0x60]
  10a4e2:	48 8d b5 20 ff ff ff 	lea    rsi,[rbp-0xe0]
  10a4e9:	48 8d 95 20 fb ff ff 	lea    rdx,[rbp-0x4e0]
  10a4f0:	4c 89 e1             	mov    rcx,r12
  10a4f3:	45 89 e8             	mov    r8d,r13d
  10a4f6:	ff 15 c4 12 02 00    	call   QWORD PTR [rip+0x212c4]        # 12b7c0 <_RNvNtCsditBB9aEfcw_17compiler_builtins3mem7memmove+0x190>
  10a4fc:	0f b7 55 b0          	movzx  edx,WORD PTR [rbp-0x50]
  10a500:	66 44 39 ea          	cmp    dx,r13w
  10a504:	0f 8f 6f ff ff ff    	jg     10a479 <_RINvNtNtCs9TWaYOb1t6o_4core3fmt5float29float_to_decimal_common_exactfEB6_+0x289>
  10a50a:	66 c7 85 40 ff ff ff 	mov    WORD PTR [rbp-0xc0],0x2
  10a511:	02 00 
  10a513:	66 83 7d cc 00       	cmp    WORD PTR [rbp-0x34],0x0
  10a518:	48 8b 4d c0          	mov    rcx,QWORD PTR [rbp-0x40]
  10a51c:	74 5b                	je     10a579 <_RINvNtNtCs9TWaYOb1t6o_4core3fmt5float29float_to_decimal_common_exactfEB6_+0x389>
  10a51e:	48 8d 05 8b 85 ff ff 	lea    rax,[rip+0xffffffffffff858b]        # 102ab0 <_RNvNtNtNtCs9TWaYOb1t6o_4core7unicode12unicode_data9uppercase17BITSET_CHUNKS_MAP+0x2d9>
  10a525:	48 89 85 48 ff ff ff 	mov    QWORD PTR [rbp-0xb8],rax
  10a52c:	48 c7 85 50 ff ff ff 	mov    QWORD PTR [rbp-0xb0],0x2
  10a533:	02 00 00 00 
  10a537:	66 c7 85 58 ff ff ff 	mov    WORD PTR [rbp-0xa8],0x0
  10a53e:	00 00 
  10a540:	48 89 8d 60 ff ff ff 	mov    QWORD PTR [rbp-0xa0],rcx
  10a547:	b8 02 00 00 00       	mov    eax,0x2
  10a54c:	eb 49                	jmp    10a597 <_RINvNtNtCs9TWaYOb1t6o_4core3fmt5float29float_to_decimal_common_exactfEB6_+0x3a7>
  10a54e:	66 c7 85 40 ff ff ff 	mov    WORD PTR [rbp-0xc0],0x2
  10a555:	02 00 
  10a557:	48 8d 0d 4e 85 ff ff 	lea    rcx,[rip+0xffffffffffff854e]        # 102aac <_RNvNtNtNtCs9TWaYOb1t6o_4core7unicode12unicode_data9uppercase17BITSET_CHUNKS_MAP+0x2d5>
  10a55e:	48 89 8d 48 ff ff ff 	mov    QWORD PTR [rbp-0xb8],rcx
  10a565:	48 c7 85 50 ff ff ff 	mov    QWORD PTR [rbp-0xb0],0x3
  10a56c:	03 00 00 00 
  10a570:	4c 8d bd 40 ff ff ff 	lea    r15,[rbp-0xc0]
  10a577:	eb 22                	jmp    10a59b <_RINvNtNtCs9TWaYOb1t6o_4core3fmt5float29float_to_decimal_common_exactfEB6_+0x3ab>
  10a579:	48 8d 05 2f 85 ff ff 	lea    rax,[rip+0xffffffffffff852f]        # 102aaf <_RNvNtNtNtCs9TWaYOb1t6o_4core7unicode12unicode_data9uppercase17BITSET_CHUNKS_MAP+0x2d8>
  10a580:	48 89 85 48 ff ff ff 	mov    QWORD PTR [rbp-0xb8],rax
  10a587:	48 c7 85 50 ff ff ff 	mov    QWORD PTR [rbp-0xb0],0x1
  10a58e:	01 00 00 00 
  10a592:	b8 01 00 00 00       	mov    eax,0x1
  10a597:	48 8b 7d d0          	mov    rdi,QWORD PTR [rbp-0x30]
  10a59b:	48 89 5d a0          	mov    QWORD PTR [rbp-0x60],rbx
  10a59f:	4c 89 75 a8          	mov    QWORD PTR [rbp-0x58],r14
  10a5a3:	4c 89 7d b0          	mov    QWORD PTR [rbp-0x50],r15
  10a5a7:	48 89 45 b8          	mov    QWORD PTR [rbp-0x48],rax
  10a5ab:	48 8d 75 a0          	lea    rsi,[rbp-0x60]
  10a5af:	e8 5c 78 00 00       	call   111e10 <_RNvMsa_NtCs9TWaYOb1t6o_4core3fmtNtB5_9Formatter19pad_formatted_parts>
  10a5b4:	48 81 c4 b8 04 00 00 	add    rsp,0x4b8
  10a5bb:	5b                   	pop    rbx
  10a5bc:	41 5c                	pop    r12
  10a5be:	41 5d                	pop    r13
  10a5c0:	41 5e                	pop    r14
  10a5c2:	41 5f                	pop    r15
  10a5c4:	5d                   	pop    rbp
  10a5c5:	c3                   	ret
  10a5c6:	48 8d 0d e2 84 ff ff 	lea    rcx,[rip+0xffffffffffff84e2]        # 102aaf <_RNvNtNtNtCs9TWaYOb1t6o_4core7unicode12unicode_data9uppercase17BITSET_CHUNKS_MAP+0x2d8>
  10a5cd:	48 89 8d 48 ff ff ff 	mov    QWORD PTR [rbp-0xb8],rcx
  10a5d4:	48 c7 85 50 ff ff ff 	mov    QWORD PTR [rbp-0xb0],0x1
  10a5db:	01 00 00 00 
  10a5df:	4c 8d bd 40 ff ff ff 	lea    r15,[rbp-0xc0]
  10a5e6:	eb b3                	jmp    10a59b <_RINvNtNtCs9TWaYOb1t6o_4core3fmt5float29float_to_decimal_common_exactfEB6_+0x3ab>
  10a5e8:	48 8d 3d 18 85 ff ff 	lea    rdi,[rip+0xffffffffffff8518]        # 102b07 <_RNvNtNtNtCs9TWaYOb1t6o_4core7unicode12unicode_data9uppercase17BITSET_CHUNKS_MAP+0x330>
  10a5ef:	48 8d 15 aa 14 02 00 	lea    rdx,[rip+0x214aa]        # 12baa0 <_RNvNtCslB4Q0PG65QT_6hlq_os10vga_writer9GL_VGA_WT+0x158>
  10a5f6:	be 25 00 00 00       	mov    esi,0x25
  10a5fb:	ff 15 df 10 02 00    	call   QWORD PTR [rip+0x210df]        # 12b6e0 <_RNvNtCsditBB9aEfcw_17compiler_builtins3mem7memmove+0xb0>

Disassembly of section .text._RINvNtNtCs9TWaYOb1t6o_4core3fmt5float32float_to_decimal_common_shortestC3f16EB6_:

000000000010a610 <_RINvNtNtCs9TWaYOb1t6o_4core3fmt5float32float_to_decimal_common_shortestC3f16EB6_>:
  10a610:	55                   	push   rbp
  10a611:	48 89 e5             	mov    rbp,rsp
  10a614:	41 57                	push   r15
  10a616:	41 56                	push   r14
  10a618:	41 54                	push   r12
  10a61a:	53                   	push   rbx
  10a61b:	48 81 ec c0 00 00 00 	sub    rsp,0xc0
  10a622:	0f b7 c6             	movzx  eax,si
  10a625:	41 89 c2             	mov    r10d,eax
  10a628:	41 c1 ea 0a          	shr    r10d,0xa
  10a62c:	44 8d 04 36          	lea    r8d,[rsi+rsi*1]
  10a630:	41 81 e0 fe 07 00 00 	and    r8d,0x7fe
  10a637:	41 89 f3             	mov    r11d,esi
  10a63a:	41 81 e3 ff 03 00 00 	and    r11d,0x3ff
  10a641:	45 8d 8b 00 04 00 00 	lea    r9d,[r11+0x400]
  10a648:	66 41 83 e2 1f       	and    r10w,0x1f
  10a64d:	45 0f 44 c8          	cmove  r9d,r8d
  10a651:	45 89 c8             	mov    r8d,r9d
  10a654:	41 83 e0 01          	and    r8d,0x1
  10a658:	31 db                	xor    ebx,ebx
  10a65a:	45 85 db             	test   r11d,r11d
  10a65d:	0f 94 c3             	sete   bl
  10a660:	81 e6 00 7c 00 00    	and    esi,0x7c00
  10a666:	41 89 db             	mov    r11d,ebx
  10a669:	41 80 f3 03          	xor    r11b,0x3
  10a66d:	85 f6                	test   esi,esi
  10a66f:	45 0f b6 db          	movzx  r11d,r11b
  10a673:	41 be 04 00 00 00    	mov    r14d,0x4
  10a679:	45 0f 44 f3          	cmove  r14d,r11d
  10a67d:	81 fe 00 7c 00 00    	cmp    esi,0x7c00
  10a683:	44 0f 44 f3          	cmove  r14d,ebx
  10a687:	41 0f b6 f6          	movzx  esi,r14b
  10a68b:	4c 8d 1d 4a 69 ff ff 	lea    r11,[rip+0xffffffffffff694a]        # 100fdc <gdt64.pointer+0xfb4>
  10a692:	49 63 34 b3          	movsxd rsi,DWORD PTR [r11+rsi*4]
  10a696:	4c 01 de             	add    rsi,r11
  10a699:	ff e6                	jmp    rsi
  10a69b:	41 b0 02             	mov    r8b,0x2
  10a69e:	eb 48                	jmp    10a6e8 <_RINvNtNtCs9TWaYOb1t6o_4core3fmt5float32float_to_decimal_common_shortestC3f16EB6_+0xd8>
  10a6a0:	43 8d 34 09          	lea    esi,[r9+r9*1]
  10a6a4:	31 db                	xor    ebx,ebx
  10a6a6:	49 81 f9 00 04 00 00 	cmp    r9,0x400
  10a6ad:	0f 94 c3             	sete   bl
  10a6b0:	41 b9 00 10 00 00    	mov    r9d,0x1000
  10a6b6:	4c 0f 45 ce          	cmovne r9,rsi
  10a6ba:	4c 8d 5b 01          	lea    r11,[rbx+0x1]
  10a6be:	41 0f b7 f2          	movzx  esi,r10w
  10a6c2:	29 de                	sub    esi,ebx
  10a6c4:	83 c6 e6             	add    esi,0xffffffe6
  10a6c7:	41 80 f0 01          	xor    r8b,0x1
  10a6cb:	eb 1b                	jmp    10a6e8 <_RINvNtNtCs9TWaYOb1t6o_4core3fmt5float32float_to_decimal_common_shortestC3f16EB6_+0xd8>
  10a6cd:	41 b0 04             	mov    r8b,0x4
  10a6d0:	eb 16                	jmp    10a6e8 <_RINvNtNtCs9TWaYOb1t6o_4core3fmt5float32float_to_decimal_common_shortestC3f16EB6_+0xd8>
  10a6d2:	41 0f b7 f2          	movzx  esi,r10w
  10a6d6:	83 c6 e7             	add    esi,0xffffffe7
  10a6d9:	41 80 f0 01          	xor    r8b,0x1
  10a6dd:	41 bb 01 00 00 00    	mov    r11d,0x1
  10a6e3:	eb 03                	jmp    10a6e8 <_RINvNtNtCs9TWaYOb1t6o_4core3fmt5float32float_to_decimal_common_shortestC3f16EB6_+0xd8>
  10a6e5:	41 b0 03             	mov    r8b,0x3
  10a6e8:	4c 89 8d 40 ff ff ff 	mov    QWORD PTR [rbp-0xc0],r9
  10a6ef:	48 c7 85 48 ff ff ff 	mov    QWORD PTR [rbp-0xb8],0x1
  10a6f6:	01 00 00 00 
  10a6fa:	4c 89 9d 50 ff ff ff 	mov    QWORD PTR [rbp-0xb0],r11
  10a701:	66 89 b5 58 ff ff ff 	mov    WORD PTR [rbp-0xa8],si
  10a708:	44 88 85 5a ff ff ff 	mov    BYTE PTR [rbp-0xa6],r8b
  10a70f:	41 80 f8 01          	cmp    r8b,0x1
  10a713:	0f 86 8e 00 00 00    	jbe    10a7a7 <_RINvNtNtCs9TWaYOb1t6o_4core3fmt5float32float_to_decimal_common_shortestC3f16EB6_+0x197>
  10a719:	41 80 c0 fe          	add    r8b,0xfe
  10a71d:	0f 84 06 01 00 00    	je     10a829 <_RINvNtNtCs9TWaYOb1t6o_4core3fmt5float32float_to_decimal_common_shortestC3f16EB6_+0x219>
  10a723:	41 89 c6             	mov    r14d,eax
  10a726:	41 c1 ee 0f          	shr    r14d,0xf
  10a72a:	66 85 c0             	test   ax,ax
  10a72d:	4c 8d 3d 73 83 ff ff 	lea    r15,[rip+0xffffffffffff8373]        # 102aa7 <_RNvNtNtNtCs9TWaYOb1t6o_4core7unicode12unicode_data9uppercase17BITSET_CHUNKS_MAP+0x2d0>
  10a734:	48 8d 05 6d 83 ff ff 	lea    rax,[rip+0xffffffffffff836d]        # 102aa8 <_RNvNtNtNtCs9TWaYOb1t6o_4core7unicode12unicode_data9uppercase17BITSET_CHUNKS_MAP+0x2d1>
  10a73b:	49 0f 48 c7          	cmovs  rax,r15
  10a73f:	be 01 00 00 00       	mov    esi,0x1
  10a744:	4c 0f 49 fe          	cmovns r15,rsi
  10a748:	84 d2                	test   dl,dl
  10a74a:	ba 01 00 00 00       	mov    edx,0x1
  10a74f:	4c 0f 45 f2          	cmovne r14,rdx
  10a753:	4c 0f 45 f8          	cmovne r15,rax
  10a757:	41 80 f8 02          	cmp    r8b,0x2
  10a75b:	0f 85 47 01 00 00    	jne    10a8a8 <_RINvNtNtCs9TWaYOb1t6o_4core3fmt5float32float_to_decimal_common_shortestC3f16EB6_+0x298>
  10a761:	66 c7 85 60 ff ff ff 	mov    WORD PTR [rbp-0xa0],0x2
  10a768:	02 00 
  10a76a:	66 85 c9             	test   cx,cx
  10a76d:	0f 84 59 01 00 00    	je     10a8cc <_RINvNtNtCs9TWaYOb1t6o_4core3fmt5float32float_to_decimal_common_shortestC3f16EB6_+0x2bc>
  10a773:	48 8d 05 36 83 ff ff 	lea    rax,[rip+0xffffffffffff8336]        # 102ab0 <_RNvNtNtNtCs9TWaYOb1t6o_4core7unicode12unicode_data9uppercase17BITSET_CHUNKS_MAP+0x2d9>
  10a77a:	48 89 85 68 ff ff ff 	mov    QWORD PTR [rbp-0x98],rax
  10a781:	48 c7 85 70 ff ff ff 	mov    QWORD PTR [rbp-0x90],0x2
  10a788:	02 00 00 00 
  10a78c:	66 c7 85 78 ff ff ff 	mov    WORD PTR [rbp-0x88],0x0
  10a793:	00 00 
  10a795:	48 c7 45 80 01 00 00 	mov    QWORD PTR [rbp-0x80],0x1
  10a79c:	00 
  10a79d:	ba 02 00 00 00       	mov    edx,0x2
  10a7a2:	e9 3e 01 00 00       	jmp    10a8e5 <_RINvNtNtCs9TWaYOb1t6o_4core3fmt5float32float_to_decimal_common_shortestC3f16EB6_+0x2d5>
  10a7a7:	49 89 fc             	mov    r12,rdi
  10a7aa:	0f b7 d9             	movzx  ebx,cx
  10a7ad:	41 89 c6             	mov    r14d,eax
  10a7b0:	41 c1 ee 0f          	shr    r14d,0xf
  10a7b4:	66 85 c0             	test   ax,ax
  10a7b7:	4c 8d 3d e9 82 ff ff 	lea    r15,[rip+0xffffffffffff82e9]        # 102aa7 <_RNvNtNtNtCs9TWaYOb1t6o_4core7unicode12unicode_data9uppercase17BITSET_CHUNKS_MAP+0x2d0>
  10a7be:	48 8d 05 e3 82 ff ff 	lea    rax,[rip+0xffffffffffff82e3]        # 102aa8 <_RNvNtNtNtCs9TWaYOb1t6o_4core7unicode12unicode_data9uppercase17BITSET_CHUNKS_MAP+0x2d1>
  10a7c5:	49 0f 48 c7          	cmovs  rax,r15
  10a7c9:	b9 01 00 00 00       	mov    ecx,0x1
  10a7ce:	4c 0f 49 f9          	cmovns r15,rcx
  10a7d2:	84 d2                	test   dl,dl
  10a7d4:	4c 0f 45 f1          	cmovne r14,rcx
  10a7d8:	4c 0f 45 f8          	cmovne r15,rax
  10a7dc:	48 8d bd 60 ff ff ff 	lea    rdi,[rbp-0xa0]
  10a7e3:	48 8d b5 40 ff ff ff 	lea    rsi,[rbp-0xc0]
  10a7ea:	48 8d 95 2f ff ff ff 	lea    rdx,[rbp-0xd1]
  10a7f1:	b9 11 00 00 00       	mov    ecx,0x11
  10a7f6:	ff 15 3c 10 02 00    	call   QWORD PTR [rip+0x2103c]        # 12b838 <_RNvNtCsditBB9aEfcw_17compiler_builtins3mem7memmove+0x208>
  10a7fc:	48 83 bd 60 ff ff ff 	cmp    QWORD PTR [rbp-0xa0],0x0
  10a803:	00 
  10a804:	74 5f                	je     10a865 <_RINvNtNtCs9TWaYOb1t6o_4core3fmt5float32float_to_decimal_common_shortestC3f16EB6_+0x255>
  10a806:	48 8b 85 70 ff ff ff 	mov    rax,QWORD PTR [rbp-0x90]
  10a80d:	48 89 45 d0          	mov    QWORD PTR [rbp-0x30],rax
  10a811:	48 8b 85 60 ff ff ff 	mov    rax,QWORD PTR [rbp-0xa0]
  10a818:	48 8b 8d 68 ff ff ff 	mov    rcx,QWORD PTR [rbp-0x98]
  10a81f:	48 89 4d c8          	mov    QWORD PTR [rbp-0x38],rcx
  10a823:	48 89 45 c0          	mov    QWORD PTR [rbp-0x40],rax
  10a827:	eb 59                	jmp    10a882 <_RINvNtNtCs9TWaYOb1t6o_4core3fmt5float32float_to_decimal_common_shortestC3f16EB6_+0x272>
  10a829:	66 c7 85 60 ff ff ff 	mov    WORD PTR [rbp-0xa0],0x2
  10a830:	02 00 
  10a832:	48 8d 05 70 82 ff ff 	lea    rax,[rip+0xffffffffffff8270]        # 102aa9 <_RNvNtNtNtCs9TWaYOb1t6o_4core7unicode12unicode_data9uppercase17BITSET_CHUNKS_MAP+0x2d2>
  10a839:	48 89 85 68 ff ff ff 	mov    QWORD PTR [rbp-0x98],rax
  10a840:	48 c7 85 70 ff ff ff 	mov    QWORD PTR [rbp-0x90],0x3
  10a847:	03 00 00 00 
  10a84b:	41 bf 01 00 00 00    	mov    r15d,0x1
  10a851:	48 8d 85 60 ff ff ff 	lea    rax,[rbp-0xa0]
  10a858:	45 31 f6             	xor    r14d,r14d
  10a85b:	ba 01 00 00 00       	mov    edx,0x1
  10a860:	e9 87 00 00 00       	jmp    10a8ec <_RINvNtNtCs9TWaYOb1t6o_4core3fmt5float32float_to_decimal_common_shortestC3f16EB6_+0x2dc>
  10a865:	48 8d 7d c0          	lea    rdi,[rbp-0x40]
  10a869:	48 8d b5 40 ff ff ff 	lea    rsi,[rbp-0xc0]
  10a870:	48 8d 95 2f ff ff ff 	lea    rdx,[rbp-0xd1]
  10a877:	b9 11 00 00 00       	mov    ecx,0x11
  10a87c:	ff 15 de 0e 02 00    	call   QWORD PTR [rip+0x20ede]        # 12b760 <_RNvNtCsditBB9aEfcw_17compiler_builtins3mem7memmove+0x130>
  10a882:	48 8b 7d c0          	mov    rdi,QWORD PTR [rbp-0x40]
  10a886:	48 8b 75 c8          	mov    rsi,QWORD PTR [rbp-0x38]
  10a88a:	8b 55 d0             	mov    edx,DWORD PTR [rbp-0x30]
  10a88d:	4c 8d 85 60 ff ff ff 	lea    r8,[rbp-0xa0]
  10a894:	41 b9 04 00 00 00    	mov    r9d,0x4
  10a89a:	48 89 d9             	mov    rcx,rbx
  10a89d:	ff 15 4d 0e 02 00    	call   QWORD PTR [rip+0x20e4d]        # 12b6f0 <_RNvNtCsditBB9aEfcw_17compiler_builtins3mem7memmove+0xc0>
  10a8a3:	4c 89 e7             	mov    rdi,r12
  10a8a6:	eb 44                	jmp    10a8ec <_RINvNtNtCs9TWaYOb1t6o_4core3fmt5float32float_to_decimal_common_shortestC3f16EB6_+0x2dc>
  10a8a8:	66 c7 85 60 ff ff ff 	mov    WORD PTR [rbp-0xa0],0x2
  10a8af:	02 00 
  10a8b1:	48 8d 05 f4 81 ff ff 	lea    rax,[rip+0xffffffffffff81f4]        # 102aac <_RNvNtNtNtCs9TWaYOb1t6o_4core7unicode12unicode_data9uppercase17BITSET_CHUNKS_MAP+0x2d5>
  10a8b8:	48 89 85 68 ff ff ff 	mov    QWORD PTR [rbp-0x98],rax
  10a8bf:	48 c7 85 70 ff ff ff 	mov    QWORD PTR [rbp-0x90],0x3
  10a8c6:	03 00 00 00 
  10a8ca:	eb 19                	jmp    10a8e5 <_RINvNtNtCs9TWaYOb1t6o_4core3fmt5float32float_to_decimal_common_shortestC3f16EB6_+0x2d5>
  10a8cc:	48 8d 05 dc 81 ff ff 	lea    rax,[rip+0xffffffffffff81dc]        # 102aaf <_RNvNtNtNtCs9TWaYOb1t6o_4core7unicode12unicode_data9uppercase17BITSET_CHUNKS_MAP+0x2d8>
  10a8d3:	48 89 85 68 ff ff ff 	mov    QWORD PTR [rbp-0x98],rax
  10a8da:	48 c7 85 70 ff ff ff 	mov    QWORD PTR [rbp-0x90],0x1
  10a8e1:	01 00 00 00 
  10a8e5:	48 8d 85 60 ff ff ff 	lea    rax,[rbp-0xa0]
  10a8ec:	4c 89 7d c0          	mov    QWORD PTR [rbp-0x40],r15
  10a8f0:	4c 89 75 c8          	mov    QWORD PTR [rbp-0x38],r14
  10a8f4:	48 89 45 d0          	mov    QWORD PTR [rbp-0x30],rax
  10a8f8:	48 89 55 d8          	mov    QWORD PTR [rbp-0x28],rdx
  10a8fc:	48 8d 75 c0          	lea    rsi,[rbp-0x40]
  10a900:	e8 0b 75 00 00       	call   111e10 <_RNvMsa_NtCs9TWaYOb1t6o_4core3fmtNtB5_9Formatter19pad_formatted_parts>
  10a905:	48 81 c4 c0 00 00 00 	add    rsp,0xc0
  10a90c:	5b                   	pop    rbx
  10a90d:	41 5c                	pop    r12
  10a90f:	41 5e                	pop    r14
  10a911:	41 5f                	pop    r15
  10a913:	5d                   	pop    rbp
  10a914:	c3                   	ret

Disassembly of section .text._RINvNtNtCs9TWaYOb1t6o_4core3fmt5float32float_to_decimal_common_shortestdEB6_:

000000000010a920 <_RINvNtNtCs9TWaYOb1t6o_4core3fmt5float32float_to_decimal_common_shortestdEB6_>:
  10a920:	55                   	push   rbp
  10a921:	48 89 e5             	mov    rbp,rsp
  10a924:	41 57                	push   r15
  10a926:	41 56                	push   r14
  10a928:	41 54                	push   r12
  10a92a:	53                   	push   rbx
  10a92b:	48 81 ec c0 00 00 00 	sub    rsp,0xc0
  10a932:	49 ba 00 00 00 00 00 	movabs r10,0x10000000000000
  10a939:	00 10 00 
  10a93c:	49 89 f1             	mov    r9,rsi
  10a93f:	49 c1 e9 34          	shr    r9,0x34
  10a943:	48 8d 04 36          	lea    rax,[rsi+rsi*1]
  10a947:	49 bb fe ff ff ff ff 	movabs r11,0x1ffffffffffffe
  10a94e:	ff 1f 00 
  10a951:	49 21 c3             	and    r11,rax
  10a954:	49 8d 5a ff          	lea    rbx,[r10-0x1]
  10a958:	48 21 f3             	and    rbx,rsi
  10a95b:	4e 8d 04 13          	lea    r8,[rbx+r10*1]
  10a95f:	66 41 81 e1 ff 07    	and    r9w,0x7ff
  10a965:	4d 0f 44 c3          	cmove  r8,r11
  10a969:	44 89 c0             	mov    eax,r8d
  10a96c:	83 e0 01             	and    eax,0x1
  10a96f:	49 bb 00 00 00 00 00 	movabs r11,0x7ff0000000000000
  10a976:	00 f0 7f 
  10a979:	49 89 f6             	mov    r14,rsi
  10a97c:	4d 21 de             	and    r14,r11
  10a97f:	45 31 ff             	xor    r15d,r15d
  10a982:	48 85 db             	test   rbx,rbx
  10a985:	41 0f 94 c7          	sete   r15b
  10a989:	44 89 fb             	mov    ebx,r15d
  10a98c:	80 f3 03             	xor    bl,0x3
  10a98f:	4d 85 f6             	test   r14,r14
  10a992:	0f b6 db             	movzx  ebx,bl
  10a995:	41 bc 04 00 00 00    	mov    r12d,0x4
  10a99b:	44 0f 44 e3          	cmove  r12d,ebx
  10a99f:	4d 39 de             	cmp    r14,r11
  10a9a2:	45 0f 44 e7          	cmove  r12d,r15d
  10a9a6:	45 0f b6 dc          	movzx  r11d,r12b
  10a9aa:	48 8d 1d 3f 66 ff ff 	lea    rbx,[rip+0xffffffffffff663f]        # 100ff0 <gdt64.pointer+0xfc8>
  10a9b1:	4e 63 1c 9b          	movsxd r11,DWORD PTR [rbx+r11*4]
  10a9b5:	49 01 db             	add    r11,rbx
  10a9b8:	41 ff e3             	jmp    r11
  10a9bb:	b0 02                	mov    al,0x2
  10a9bd:	eb 4b                	jmp    10aa0a <_RINvNtNtCs9TWaYOb1t6o_4core3fmt5float32float_to_decimal_common_shortestdEB6_+0xea>
  10a9bf:	4f 8d 1c 00          	lea    r11,[r8+r8*1]
  10a9c3:	31 db                	xor    ebx,ebx
  10a9c5:	4d 39 d0             	cmp    r8,r10
  10a9c8:	0f 94 c3             	sete   bl
  10a9cb:	49 b8 00 00 00 00 00 	movabs r8,0x40000000000000
  10a9d2:	00 40 00 
  10a9d5:	4d 0f 45 c3          	cmovne r8,r11
  10a9d9:	4c 8d 53 01          	lea    r10,[rbx+0x1]
  10a9dd:	45 0f b7 c9          	movzx  r9d,r9w
  10a9e1:	41 29 d9             	sub    r9d,ebx
  10a9e4:	41 81 c1 cc fb ff ff 	add    r9d,0xfffffbcc
  10a9eb:	34 01                	xor    al,0x1
  10a9ed:	eb 1b                	jmp    10aa0a <_RINvNtNtCs9TWaYOb1t6o_4core3fmt5float32float_to_decimal_common_shortestdEB6_+0xea>
  10a9ef:	b0 04                	mov    al,0x4
  10a9f1:	eb 17                	jmp    10aa0a <_RINvNtNtCs9TWaYOb1t6o_4core3fmt5float32float_to_decimal_common_shortestdEB6_+0xea>
  10a9f3:	45 0f b7 c9          	movzx  r9d,r9w
  10a9f7:	41 81 c1 cd fb ff ff 	add    r9d,0xfffffbcd
  10a9fe:	34 01                	xor    al,0x1
  10aa00:	41 ba 01 00 00 00    	mov    r10d,0x1
  10aa06:	eb 02                	jmp    10aa0a <_RINvNtNtCs9TWaYOb1t6o_4core3fmt5float32float_to_decimal_common_shortestdEB6_+0xea>
  10aa08:	b0 03                	mov    al,0x3
  10aa0a:	4c 89 85 40 ff ff ff 	mov    QWORD PTR [rbp-0xc0],r8
  10aa11:	48 c7 85 48 ff ff ff 	mov    QWORD PTR [rbp-0xb8],0x1
  10aa18:	01 00 00 00 
  10aa1c:	4c 89 95 50 ff ff ff 	mov    QWORD PTR [rbp-0xb0],r10
  10aa23:	66 44 89 8d 58 ff ff 	mov    WORD PTR [rbp-0xa8],r9w
  10aa2a:	ff 
  10aa2b:	88 85 5a ff ff ff    	mov    BYTE PTR [rbp-0xa6],al
  10aa31:	3c 01                	cmp    al,0x1
  10aa33:	0f 86 8b 00 00 00    	jbe    10aac4 <_RINvNtNtCs9TWaYOb1t6o_4core3fmt5float32float_to_decimal_common_shortestdEB6_+0x1a4>
  10aa39:	04 fe                	add    al,0xfe
  10aa3b:	0f 84 05 01 00 00    	je     10ab46 <_RINvNtNtCs9TWaYOb1t6o_4core3fmt5float32float_to_decimal_common_shortestdEB6_+0x226>
  10aa41:	49 89 f6             	mov    r14,rsi
  10aa44:	49 c1 ee 3f          	shr    r14,0x3f
  10aa48:	48 85 f6             	test   rsi,rsi
  10aa4b:	4c 8d 3d 55 80 ff ff 	lea    r15,[rip+0xffffffffffff8055]        # 102aa7 <_RNvNtNtNtCs9TWaYOb1t6o_4core7unicode12unicode_data9uppercase17BITSET_CHUNKS_MAP+0x2d0>
  10aa52:	48 8d 35 4f 80 ff ff 	lea    rsi,[rip+0xffffffffffff804f]        # 102aa8 <_RNvNtNtNtCs9TWaYOb1t6o_4core7unicode12unicode_data9uppercase17BITSET_CHUNKS_MAP+0x2d1>
  10aa59:	49 0f 48 f7          	cmovs  rsi,r15
  10aa5d:	41 b8 01 00 00 00    	mov    r8d,0x1
  10aa63:	4d 0f 49 f8          	cmovns r15,r8
  10aa67:	84 d2                	test   dl,dl
  10aa69:	ba 01 00 00 00       	mov    edx,0x1
  10aa6e:	4c 0f 45 f2          	cmovne r14,rdx
  10aa72:	4c 0f 45 fe          	cmovne r15,rsi
  10aa76:	3c 02                	cmp    al,0x2
  10aa78:	0f 85 47 01 00 00    	jne    10abc5 <_RINvNtNtCs9TWaYOb1t6o_4core3fmt5float32float_to_decimal_common_shortestdEB6_+0x2a5>
  10aa7e:	66 c7 85 60 ff ff ff 	mov    WORD PTR [rbp-0xa0],0x2
  10aa85:	02 00 
  10aa87:	66 85 c9             	test   cx,cx
  10aa8a:	0f 84 59 01 00 00    	je     10abe9 <_RINvNtNtCs9TWaYOb1t6o_4core3fmt5float32float_to_decimal_common_shortestdEB6_+0x2c9>
  10aa90:	48 8d 05 19 80 ff ff 	lea    rax,[rip+0xffffffffffff8019]        # 102ab0 <_RNvNtNtNtCs9TWaYOb1t6o_4core7unicode12unicode_data9uppercase17BITSET_CHUNKS_MAP+0x2d9>
  10aa97:	48 89 85 68 ff ff ff 	mov    QWORD PTR [rbp-0x98],rax
  10aa9e:	48 c7 85 70 ff ff ff 	mov    QWORD PTR [rbp-0x90],0x2
  10aaa5:	02 00 00 00 
  10aaa9:	66 c7 85 78 ff ff ff 	mov    WORD PTR [rbp-0x88],0x0
  10aab0:	00 00 
  10aab2:	48 c7 45 80 01 00 00 	mov    QWORD PTR [rbp-0x80],0x1
  10aab9:	00 
  10aaba:	ba 02 00 00 00       	mov    edx,0x2
  10aabf:	e9 3e 01 00 00       	jmp    10ac02 <_RINvNtNtCs9TWaYOb1t6o_4core3fmt5float32float_to_decimal_common_shortestdEB6_+0x2e2>
  10aac4:	49 89 fc             	mov    r12,rdi
  10aac7:	0f b7 d9             	movzx  ebx,cx
  10aaca:	49 89 f6             	mov    r14,rsi
  10aacd:	49 c1 ee 3f          	shr    r14,0x3f
  10aad1:	48 85 f6             	test   rsi,rsi
  10aad4:	4c 8d 3d cc 7f ff ff 	lea    r15,[rip+0xffffffffffff7fcc]        # 102aa7 <_RNvNtNtNtCs9TWaYOb1t6o_4core7unicode12unicode_data9uppercase17BITSET_CHUNKS_MAP+0x2d0>
  10aadb:	48 8d 05 c6 7f ff ff 	lea    rax,[rip+0xffffffffffff7fc6]        # 102aa8 <_RNvNtNtNtCs9TWaYOb1t6o_4core7unicode12unicode_data9uppercase17BITSET_CHUNKS_MAP+0x2d1>
  10aae2:	49 0f 48 c7          	cmovs  rax,r15
  10aae6:	b9 01 00 00 00       	mov    ecx,0x1
  10aaeb:	4c 0f 49 f9          	cmovns r15,rcx
  10aaef:	84 d2                	test   dl,dl
  10aaf1:	4c 0f 45 f1          	cmovne r14,rcx
  10aaf5:	4c 0f 45 f8          	cmovne r15,rax
  10aaf9:	48 8d bd 60 ff ff ff 	lea    rdi,[rbp-0xa0]
  10ab00:	48 8d b5 40 ff ff ff 	lea    rsi,[rbp-0xc0]
  10ab07:	48 8d 95 2f ff ff ff 	lea    rdx,[rbp-0xd1]
  10ab0e:	b9 11 00 00 00       	mov    ecx,0x11
  10ab13:	ff 15 1f 0d 02 00    	call   QWORD PTR [rip+0x20d1f]        # 12b838 <_RNvNtCsditBB9aEfcw_17compiler_builtins3mem7memmove+0x208>
  10ab19:	48 83 bd 60 ff ff ff 	cmp    QWORD PTR [rbp-0xa0],0x0
  10ab20:	00 
  10ab21:	74 5f                	je     10ab82 <_RINvNtNtCs9TWaYOb1t6o_4core3fmt5float32float_to_decimal_common_shortestdEB6_+0x262>
  10ab23:	48 8b 85 70 ff ff ff 	mov    rax,QWORD PTR [rbp-0x90]
  10ab2a:	48 89 45 d0          	mov    QWORD PTR [rbp-0x30],rax
  10ab2e:	48 8b 85 60 ff ff ff 	mov    rax,QWORD PTR [rbp-0xa0]
  10ab35:	48 8b 8d 68 ff ff ff 	mov    rcx,QWORD PTR [rbp-0x98]
  10ab3c:	48 89 4d c8          	mov    QWORD PTR [rbp-0x38],rcx
  10ab40:	48 89 45 c0          	mov    QWORD PTR [rbp-0x40],rax
  10ab44:	eb 59                	jmp    10ab9f <_RINvNtNtCs9TWaYOb1t6o_4core3fmt5float32float_to_decimal_common_shortestdEB6_+0x27f>
  10ab46:	66 c7 85 60 ff ff ff 	mov    WORD PTR [rbp-0xa0],0x2
  10ab4d:	02 00 
  10ab4f:	48 8d 05 53 7f ff ff 	lea    rax,[rip+0xffffffffffff7f53]        # 102aa9 <_RNvNtNtNtCs9TWaYOb1t6o_4core7unicode12unicode_data9uppercase17BITSET_CHUNKS_MAP+0x2d2>
  10ab56:	48 89 85 68 ff ff ff 	mov    QWORD PTR [rbp-0x98],rax
  10ab5d:	48 c7 85 70 ff ff ff 	mov    QWORD PTR [rbp-0x90],0x3
  10ab64:	03 00 00 00 
  10ab68:	41 bf 01 00 00 00    	mov    r15d,0x1
  10ab6e:	48 8d 85 60 ff ff ff 	lea    rax,[rbp-0xa0]
  10ab75:	45 31 f6             	xor    r14d,r14d
  10ab78:	ba 01 00 00 00       	mov    edx,0x1
  10ab7d:	e9 87 00 00 00       	jmp    10ac09 <_RINvNtNtCs9TWaYOb1t6o_4core3fmt5float32float_to_decimal_common_shortestdEB6_+0x2e9>
  10ab82:	48 8d 7d c0          	lea    rdi,[rbp-0x40]
  10ab86:	48 8d b5 40 ff ff ff 	lea    rsi,[rbp-0xc0]
  10ab8d:	48 8d 95 2f ff ff ff 	lea    rdx,[rbp-0xd1]
  10ab94:	b9 11 00 00 00       	mov    ecx,0x11
  10ab99:	ff 15 c1 0b 02 00    	call   QWORD PTR [rip+0x20bc1]        # 12b760 <_RNvNtCsditBB9aEfcw_17compiler_builtins3mem7memmove+0x130>
  10ab9f:	48 8b 7d c0          	mov    rdi,QWORD PTR [rbp-0x40]
  10aba3:	48 8b 75 c8          	mov    rsi,QWORD PTR [rbp-0x38]
  10aba7:	8b 55 d0             	mov    edx,DWORD PTR [rbp-0x30]
  10abaa:	4c 8d 85 60 ff ff ff 	lea    r8,[rbp-0xa0]
  10abb1:	41 b9 04 00 00 00    	mov    r9d,0x4
  10abb7:	48 89 d9             	mov    rcx,rbx
  10abba:	ff 15 30 0b 02 00    	call   QWORD PTR [rip+0x20b30]        # 12b6f0 <_RNvNtCsditBB9aEfcw_17compiler_builtins3mem7memmove+0xc0>
  10abc0:	4c 89 e7             	mov    rdi,r12
  10abc3:	eb 44                	jmp    10ac09 <_RINvNtNtCs9TWaYOb1t6o_4core3fmt5float32float_to_decimal_common_shortestdEB6_+0x2e9>
  10abc5:	66 c7 85 60 ff ff ff 	mov    WORD PTR [rbp-0xa0],0x2
  10abcc:	02 00 
  10abce:	48 8d 05 d7 7e ff ff 	lea    rax,[rip+0xffffffffffff7ed7]        # 102aac <_RNvNtNtNtCs9TWaYOb1t6o_4core7unicode12unicode_data9uppercase17BITSET_CHUNKS_MAP+0x2d5>
  10abd5:	48 89 85 68 ff ff ff 	mov    QWORD PTR [rbp-0x98],rax
  10abdc:	48 c7 85 70 ff ff ff 	mov    QWORD PTR [rbp-0x90],0x3
  10abe3:	03 00 00 00 
  10abe7:	eb 19                	jmp    10ac02 <_RINvNtNtCs9TWaYOb1t6o_4core3fmt5float32float_to_decimal_common_shortestdEB6_+0x2e2>
  10abe9:	48 8d 05 bf 7e ff ff 	lea    rax,[rip+0xffffffffffff7ebf]        # 102aaf <_RNvNtNtNtCs9TWaYOb1t6o_4core7unicode12unicode_data9uppercase17BITSET_CHUNKS_MAP+0x2d8>
  10abf0:	48 89 85 68 ff ff ff 	mov    QWORD PTR [rbp-0x98],rax
  10abf7:	48 c7 85 70 ff ff ff 	mov    QWORD PTR [rbp-0x90],0x1
  10abfe:	01 00 00 00 
  10ac02:	48 8d 85 60 ff ff ff 	lea    rax,[rbp-0xa0]
  10ac09:	4c 89 7d c0          	mov    QWORD PTR [rbp-0x40],r15
  10ac0d:	4c 89 75 c8          	mov    QWORD PTR [rbp-0x38],r14
  10ac11:	48 89 45 d0          	mov    QWORD PTR [rbp-0x30],rax
  10ac15:	48 89 55 d8          	mov    QWORD PTR [rbp-0x28],rdx
  10ac19:	48 8d 75 c0          	lea    rsi,[rbp-0x40]
  10ac1d:	e8 ee 71 00 00       	call   111e10 <_RNvMsa_NtCs9TWaYOb1t6o_4core3fmtNtB5_9Formatter19pad_formatted_parts>
  10ac22:	48 81 c4 c0 00 00 00 	add    rsp,0xc0
  10ac29:	5b                   	pop    rbx
  10ac2a:	41 5c                	pop    r12
  10ac2c:	41 5e                	pop    r14
  10ac2e:	41 5f                	pop    r15
  10ac30:	5d                   	pop    rbp
  10ac31:	c3                   	ret

Disassembly of section .text._RINvNtNtCs9TWaYOb1t6o_4core3fmt5float32float_to_decimal_common_shortestfEB6_:

000000000010ac40 <_RINvNtNtCs9TWaYOb1t6o_4core3fmt5float32float_to_decimal_common_shortestfEB6_>:
  10ac40:	55                   	push   rbp
  10ac41:	48 89 e5             	mov    rbp,rsp
  10ac44:	41 57                	push   r15
  10ac46:	41 56                	push   r14
  10ac48:	41 54                	push   r12
  10ac4a:	53                   	push   rbx
  10ac4b:	48 81 ec c0 00 00 00 	sub    rsp,0xc0
  10ac52:	41 89 f1             	mov    r9d,esi
  10ac55:	41 c1 e9 17          	shr    r9d,0x17
  10ac59:	8d 04 36             	lea    eax,[rsi+rsi*1]
  10ac5c:	25 fe ff ff 00       	and    eax,0xfffffe
  10ac61:	41 89 f2             	mov    r10d,esi
  10ac64:	41 81 e2 ff ff 7f 00 	and    r10d,0x7fffff
  10ac6b:	45 8d 82 00 00 80 00 	lea    r8d,[r10+0x800000]
  10ac72:	66 41 81 e1 ff 00    	and    r9w,0xff
  10ac78:	44 0f 44 c0          	cmove  r8d,eax
  10ac7c:	44 89 c0             	mov    eax,r8d
  10ac7f:	83 e0 01             	and    eax,0x1
  10ac82:	41 89 f3             	mov    r11d,esi
  10ac85:	41 81 e3 00 00 80 7f 	and    r11d,0x7f800000
  10ac8c:	31 db                	xor    ebx,ebx
  10ac8e:	45 85 d2             	test   r10d,r10d
  10ac91:	0f 94 c3             	sete   bl
  10ac94:	41 89 da             	mov    r10d,ebx
  10ac97:	41 80 f2 03          	xor    r10b,0x3
  10ac9b:	45 85 db             	test   r11d,r11d
  10ac9e:	45 0f b6 d2          	movzx  r10d,r10b
  10aca2:	41 be 04 00 00 00    	mov    r14d,0x4
  10aca8:	45 0f 44 f2          	cmove  r14d,r10d
  10acac:	41 81 fb 00 00 80 7f 	cmp    r11d,0x7f800000
  10acb3:	44 0f 44 f3          	cmove  r14d,ebx
  10acb7:	45 0f b6 d6          	movzx  r10d,r14b
  10acbb:	4c 8d 1d 42 63 ff ff 	lea    r11,[rip+0xffffffffffff6342]        # 101004 <gdt64.pointer+0xfdc>
  10acc2:	4f 63 14 93          	movsxd r10,DWORD PTR [r11+r10*4]
  10acc6:	4d 01 da             	add    r10,r11
  10acc9:	41 ff e2             	jmp    r10
  10accc:	b0 02                	mov    al,0x2
  10acce:	eb 4d                	jmp    10ad1d <_RINvNtNtCs9TWaYOb1t6o_4core3fmt5float32float_to_decimal_common_shortestfEB6_+0xdd>
  10acd0:	47 8d 14 00          	lea    r10d,[r8+r8*1]
  10acd4:	45 31 db             	xor    r11d,r11d
  10acd7:	49 81 f8 00 00 80 00 	cmp    r8,0x800000
  10acde:	41 0f 94 c3          	sete   r11b
  10ace2:	41 b8 00 00 00 02    	mov    r8d,0x2000000
  10ace8:	4d 0f 45 c2          	cmovne r8,r10
  10acec:	4d 8d 53 01          	lea    r10,[r11+0x1]
  10acf0:	41 81 f3 69 ff ff ff 	xor    r11d,0xffffff69
  10acf7:	45 0f b7 c9          	movzx  r9d,r9w
  10acfb:	45 01 d9             	add    r9d,r11d
  10acfe:	34 01                	xor    al,0x1
  10ad00:	eb 1b                	jmp    10ad1d <_RINvNtNtCs9TWaYOb1t6o_4core3fmt5float32float_to_decimal_common_shortestfEB6_+0xdd>
  10ad02:	b0 04                	mov    al,0x4
  10ad04:	eb 17                	jmp    10ad1d <_RINvNtNtCs9TWaYOb1t6o_4core3fmt5float32float_to_decimal_common_shortestfEB6_+0xdd>
  10ad06:	45 0f b7 c9          	movzx  r9d,r9w
  10ad0a:	41 81 c1 6a ff ff ff 	add    r9d,0xffffff6a
  10ad11:	34 01                	xor    al,0x1
  10ad13:	41 ba 01 00 00 00    	mov    r10d,0x1
  10ad19:	eb 02                	jmp    10ad1d <_RINvNtNtCs9TWaYOb1t6o_4core3fmt5float32float_to_decimal_common_shortestfEB6_+0xdd>
  10ad1b:	b0 03                	mov    al,0x3
  10ad1d:	4c 89 85 40 ff ff ff 	mov    QWORD PTR [rbp-0xc0],r8
  10ad24:	48 c7 85 48 ff ff ff 	mov    QWORD PTR [rbp-0xb8],0x1
  10ad2b:	01 00 00 00 
  10ad2f:	4c 89 95 50 ff ff ff 	mov    QWORD PTR [rbp-0xb0],r10
  10ad36:	66 44 89 8d 58 ff ff 	mov    WORD PTR [rbp-0xa8],r9w
  10ad3d:	ff 
  10ad3e:	88 85 5a ff ff ff    	mov    BYTE PTR [rbp-0xa6],al
  10ad44:	3c 01                	cmp    al,0x1
  10ad46:	0f 86 8a 00 00 00    	jbe    10add6 <_RINvNtNtCs9TWaYOb1t6o_4core3fmt5float32float_to_decimal_common_shortestfEB6_+0x196>
  10ad4c:	04 fe                	add    al,0xfe
  10ad4e:	0f 84 03 01 00 00    	je     10ae57 <_RINvNtNtCs9TWaYOb1t6o_4core3fmt5float32float_to_decimal_common_shortestfEB6_+0x217>
  10ad54:	41 89 f6             	mov    r14d,esi
  10ad57:	41 c1 ee 1f          	shr    r14d,0x1f
  10ad5b:	85 f6                	test   esi,esi
  10ad5d:	4c 8d 3d 43 7d ff ff 	lea    r15,[rip+0xffffffffffff7d43]        # 102aa7 <_RNvNtNtNtCs9TWaYOb1t6o_4core7unicode12unicode_data9uppercase17BITSET_CHUNKS_MAP+0x2d0>
  10ad64:	48 8d 35 3d 7d ff ff 	lea    rsi,[rip+0xffffffffffff7d3d]        # 102aa8 <_RNvNtNtNtCs9TWaYOb1t6o_4core7unicode12unicode_data9uppercase17BITSET_CHUNKS_MAP+0x2d1>
  10ad6b:	49 0f 48 f7          	cmovs  rsi,r15
  10ad6f:	41 b8 01 00 00 00    	mov    r8d,0x1
  10ad75:	4d 0f 49 f8          	cmovns r15,r8
  10ad79:	84 d2                	test   dl,dl
  10ad7b:	ba 01 00 00 00       	mov    edx,0x1
  10ad80:	4c 0f 45 f2          	cmovne r14,rdx
  10ad84:	4c 0f 45 fe          	cmovne r15,rsi
  10ad88:	3c 02                	cmp    al,0x2
  10ad8a:	0f 85 46 01 00 00    	jne    10aed6 <_RINvNtNtCs9TWaYOb1t6o_4core3fmt5float32float_to_decimal_common_shortestfEB6_+0x296>
  10ad90:	66 c7 85 60 ff ff ff 	mov    WORD PTR [rbp-0xa0],0x2
  10ad97:	02 00 
  10ad99:	66 85 c9             	test   cx,cx
  10ad9c:	0f 84 58 01 00 00    	je     10aefa <_RINvNtNtCs9TWaYOb1t6o_4core3fmt5float32float_to_decimal_common_shortestfEB6_+0x2ba>
  10ada2:	48 8d 05 07 7d ff ff 	lea    rax,[rip+0xffffffffffff7d07]        # 102ab0 <_RNvNtNtNtCs9TWaYOb1t6o_4core7unicode12unicode_data9uppercase17BITSET_CHUNKS_MAP+0x2d9>
  10ada9:	48 89 85 68 ff ff ff 	mov    QWORD PTR [rbp-0x98],rax
  10adb0:	48 c7 85 70 ff ff ff 	mov    QWORD PTR [rbp-0x90],0x2
  10adb7:	02 00 00 00 
  10adbb:	66 c7 85 78 ff ff ff 	mov    WORD PTR [rbp-0x88],0x0
  10adc2:	00 00 
  10adc4:	48 c7 45 80 01 00 00 	mov    QWORD PTR [rbp-0x80],0x1
  10adcb:	00 
  10adcc:	ba 02 00 00 00       	mov    edx,0x2
  10add1:	e9 3d 01 00 00       	jmp    10af13 <_RINvNtNtCs9TWaYOb1t6o_4core3fmt5float32float_to_decimal_common_shortestfEB6_+0x2d3>
  10add6:	49 89 fc             	mov    r12,rdi
  10add9:	0f b7 d9             	movzx  ebx,cx
  10addc:	41 89 f6             	mov    r14d,esi
  10addf:	41 c1 ee 1f          	shr    r14d,0x1f
  10ade3:	85 f6                	test   esi,esi
  10ade5:	4c 8d 3d bb 7c ff ff 	lea    r15,[rip+0xffffffffffff7cbb]        # 102aa7 <_RNvNtNtNtCs9TWaYOb1t6o_4core7unicode12unicode_data9uppercase17BITSET_CHUNKS_MAP+0x2d0>
  10adec:	48 8d 05 b5 7c ff ff 	lea    rax,[rip+0xffffffffffff7cb5]        # 102aa8 <_RNvNtNtNtCs9TWaYOb1t6o_4core7unicode12unicode_data9uppercase17BITSET_CHUNKS_MAP+0x2d1>
  10adf3:	49 0f 48 c7          	cmovs  rax,r15
  10adf7:	b9 01 00 00 00       	mov    ecx,0x1
  10adfc:	4c 0f 49 f9          	cmovns r15,rcx
  10ae00:	84 d2                	test   dl,dl
  10ae02:	4c 0f 45 f1          	cmovne r14,rcx
  10ae06:	4c 0f 45 f8          	cmovne r15,rax
  10ae0a:	48 8d bd 60 ff ff ff 	lea    rdi,[rbp-0xa0]
  10ae11:	48 8d b5 40 ff ff ff 	lea    rsi,[rbp-0xc0]
  10ae18:	48 8d 95 2f ff ff ff 	lea    rdx,[rbp-0xd1]
  10ae1f:	b9 11 00 00 00       	mov    ecx,0x11
  10ae24:	ff 15 0e 0a 02 00    	call   QWORD PTR [rip+0x20a0e]        # 12b838 <_RNvNtCsditBB9aEfcw_17compiler_builtins3mem7memmove+0x208>
  10ae2a:	48 83 bd 60 ff ff ff 	cmp    QWORD PTR [rbp-0xa0],0x0
  10ae31:	00 
  10ae32:	74 5f                	je     10ae93 <_RINvNtNtCs9TWaYOb1t6o_4core3fmt5float32float_to_decimal_common_shortestfEB6_+0x253>
  10ae34:	48 8b 85 70 ff ff ff 	mov    rax,QWORD PTR [rbp-0x90]
  10ae3b:	48 89 45 d0          	mov    QWORD PTR [rbp-0x30],rax
  10ae3f:	48 8b 85 60 ff ff ff 	mov    rax,QWORD PTR [rbp-0xa0]
  10ae46:	48 8b 8d 68 ff ff ff 	mov    rcx,QWORD PTR [rbp-0x98]
  10ae4d:	48 89 4d c8          	mov    QWORD PTR [rbp-0x38],rcx
  10ae51:	48 89 45 c0          	mov    QWORD PTR [rbp-0x40],rax
  10ae55:	eb 59                	jmp    10aeb0 <_RINvNtNtCs9TWaYOb1t6o_4core3fmt5float32float_to_decimal_common_shortestfEB6_+0x270>
  10ae57:	66 c7 85 60 ff ff ff 	mov    WORD PTR [rbp-0xa0],0x2
  10ae5e:	02 00 
  10ae60:	48 8d 05 42 7c ff ff 	lea    rax,[rip+0xffffffffffff7c42]        # 102aa9 <_RNvNtNtNtCs9TWaYOb1t6o_4core7unicode12unicode_data9uppercase17BITSET_CHUNKS_MAP+0x2d2>
  10ae67:	48 89 85 68 ff ff ff 	mov    QWORD PTR [rbp-0x98],rax
  10ae6e:	48 c7 85 70 ff ff ff 	mov    QWORD PTR [rbp-0x90],0x3
  10ae75:	03 00 00 00 
  10ae79:	41 bf 01 00 00 00    	mov    r15d,0x1
  10ae7f:	48 8d 85 60 ff ff ff 	lea    rax,[rbp-0xa0]
  10ae86:	45 31 f6             	xor    r14d,r14d
  10ae89:	ba 01 00 00 00       	mov    edx,0x1
  10ae8e:	e9 87 00 00 00       	jmp    10af1a <_RINvNtNtCs9TWaYOb1t6o_4core3fmt5float32float_to_decimal_common_shortestfEB6_+0x2da>
  10ae93:	48 8d 7d c0          	lea    rdi,[rbp-0x40]
  10ae97:	48 8d b5 40 ff ff ff 	lea    rsi,[rbp-0xc0]
  10ae9e:	48 8d 95 2f ff ff ff 	lea    rdx,[rbp-0xd1]
  10aea5:	b9 11 00 00 00       	mov    ecx,0x11
  10aeaa:	ff 15 b0 08 02 00    	call   QWORD PTR [rip+0x208b0]        # 12b760 <_RNvNtCsditBB9aEfcw_17compiler_builtins3mem7memmove+0x130>
  10aeb0:	48 8b 7d c0          	mov    rdi,QWORD PTR [rbp-0x40]
  10aeb4:	48 8b 75 c8          	mov    rsi,QWORD PTR [rbp-0x38]
  10aeb8:	8b 55 d0             	mov    edx,DWORD PTR [rbp-0x30]
  10aebb:	4c 8d 85 60 ff ff ff 	lea    r8,[rbp-0xa0]
  10aec2:	41 b9 04 00 00 00    	mov    r9d,0x4
  10aec8:	48 89 d9             	mov    rcx,rbx
  10aecb:	ff 15 1f 08 02 00    	call   QWORD PTR [rip+0x2081f]        # 12b6f0 <_RNvNtCsditBB9aEfcw_17compiler_builtins3mem7memmove+0xc0>
  10aed1:	4c 89 e7             	mov    rdi,r12
  10aed4:	eb 44                	jmp    10af1a <_RINvNtNtCs9TWaYOb1t6o_4core3fmt5float32float_to_decimal_common_shortestfEB6_+0x2da>
  10aed6:	66 c7 85 60 ff ff ff 	mov    WORD PTR [rbp-0xa0],0x2
  10aedd:	02 00 
  10aedf:	48 8d 05 c6 7b ff ff 	lea    rax,[rip+0xffffffffffff7bc6]        # 102aac <_RNvNtNtNtCs9TWaYOb1t6o_4core7unicode12unicode_data9uppercase17BITSET_CHUNKS_MAP+0x2d5>
  10aee6:	48 89 85 68 ff ff ff 	mov    QWORD PTR [rbp-0x98],rax
  10aeed:	48 c7 85 70 ff ff ff 	mov    QWORD PTR [rbp-0x90],0x3
  10aef4:	03 00 00 00 
  10aef8:	eb 19                	jmp    10af13 <_RINvNtNtCs9TWaYOb1t6o_4core3fmt5float32float_to_decimal_common_shortestfEB6_+0x2d3>
  10aefa:	48 8d 05 ae 7b ff ff 	lea    rax,[rip+0xffffffffffff7bae]        # 102aaf <_RNvNtNtNtCs9TWaYOb1t6o_4core7unicode12unicode_data9uppercase17BITSET_CHUNKS_MAP+0x2d8>
  10af01:	48 89 85 68 ff ff ff 	mov    QWORD PTR [rbp-0x98],rax
  10af08:	48 c7 85 70 ff ff ff 	mov    QWORD PTR [rbp-0x90],0x1
  10af0f:	01 00 00 00 
  10af13:	48 8d 85 60 ff ff ff 	lea    rax,[rbp-0xa0]
  10af1a:	4c 89 7d c0          	mov    QWORD PTR [rbp-0x40],r15
  10af1e:	4c 89 75 c8          	mov    QWORD PTR [rbp-0x38],r14
  10af22:	48 89 45 d0          	mov    QWORD PTR [rbp-0x30],rax
  10af26:	48 89 55 d8          	mov    QWORD PTR [rbp-0x28],rdx
  10af2a:	48 8d 75 c0          	lea    rsi,[rbp-0x40]
  10af2e:	e8 dd 6e 00 00       	call   111e10 <_RNvMsa_NtCs9TWaYOb1t6o_4core3fmtNtB5_9Formatter19pad_formatted_parts>
  10af33:	48 81 c4 c0 00 00 00 	add    rsp,0xc0
  10af3a:	5b                   	pop    rbx
  10af3b:	41 5c                	pop    r12
  10af3d:	41 5e                	pop    r14
  10af3f:	41 5f                	pop    r15
  10af41:	5d                   	pop    rbp
  10af42:	c3                   	ret

Disassembly of section .text._RINvNtNtCs9TWaYOb1t6o_4core3fmt5float33float_to_exponential_common_exactC3f16EB6_:

000000000010af50 <_RINvNtNtCs9TWaYOb1t6o_4core3fmt5float33float_to_exponential_common_exactC3f16EB6_>:
  10af50:	55                   	push   rbp
  10af51:	48 89 e5             	mov    rbp,rsp
  10af54:	41 57                	push   r15
  10af56:	41 56                	push   r14
  10af58:	41 55                	push   r13
  10af5a:	41 54                	push   r12
  10af5c:	53                   	push   rbx
  10af5d:	48 81 ec e8 04 00 00 	sub    rsp,0x4e8
  10af64:	0f b7 c6             	movzx  eax,si
  10af67:	41 89 c2             	mov    r10d,eax
  10af6a:	41 c1 ea 0a          	shr    r10d,0xa
  10af6e:	44 8d 0c 36          	lea    r9d,[rsi+rsi*1]
  10af72:	41 81 e1 fe 07 00 00 	and    r9d,0x7fe
  10af79:	41 89 f3             	mov    r11d,esi
  10af7c:	41 81 e3 ff 03 00 00 	and    r11d,0x3ff
  10af83:	45 8d a3 00 04 00 00 	lea    r12d,[r11+0x400]
  10af8a:	66 41 83 e2 1f       	and    r10w,0x1f
  10af8f:	45 0f 44 e1          	cmove  r12d,r9d
  10af93:	45 89 e1             	mov    r9d,r12d
  10af96:	41 83 e1 01          	and    r9d,0x1
  10af9a:	31 db                	xor    ebx,ebx
  10af9c:	45 85 db             	test   r11d,r11d
  10af9f:	0f 94 c3             	sete   bl
  10afa2:	81 e6 00 7c 00 00    	and    esi,0x7c00
  10afa8:	41 89 db             	mov    r11d,ebx
  10afab:	41 80 f3 03          	xor    r11b,0x3
  10afaf:	85 f6                	test   esi,esi
  10afb1:	45 0f b6 db          	movzx  r11d,r11b
  10afb5:	41 bf 04 00 00 00    	mov    r15d,0x4
  10afbb:	45 0f 44 fb          	cmove  r15d,r11d
  10afbf:	44 0f b7 f1          	movzx  r14d,cx
  10afc3:	81 fe 00 7c 00 00    	cmp    esi,0x7c00
  10afc9:	44 0f 44 fb          	cmove  r15d,ebx
  10afcd:	41 0f b6 f7          	movzx  esi,r15b
  10afd1:	4c 8d 1d 40 60 ff ff 	lea    r11,[rip+0xffffffffffff6040]        # 101018 <gdt64.pointer+0xff0>
  10afd8:	49 63 34 b3          	movsxd rsi,DWORD PTR [r11+rsi*4]
  10afdc:	4c 01 de             	add    rsi,r11
  10afdf:	ff e6                	jmp    rsi
  10afe1:	41 b1 02             	mov    r9b,0x2
  10afe4:	eb 48                	jmp    10b02e <_RINvNtNtCs9TWaYOb1t6o_4core3fmt5float33float_to_exponential_common_exactC3f16EB6_+0xde>
  10afe6:	43 8d 34 24          	lea    esi,[r12+r12*1]
  10afea:	31 db                	xor    ebx,ebx
  10afec:	49 81 fc 00 04 00 00 	cmp    r12,0x400
  10aff3:	0f 94 c3             	sete   bl
  10aff6:	41 bc 00 10 00 00    	mov    r12d,0x1000
  10affc:	4c 0f 45 e6          	cmovne r12,rsi
  10b000:	4c 8d 5b 01          	lea    r11,[rbx+0x1]
  10b004:	41 0f b7 f2          	movzx  esi,r10w
  10b008:	29 de                	sub    esi,ebx
  10b00a:	83 c6 e6             	add    esi,0xffffffe6
  10b00d:	41 80 f1 01          	xor    r9b,0x1
  10b011:	eb 1b                	jmp    10b02e <_RINvNtNtCs9TWaYOb1t6o_4core3fmt5float33float_to_exponential_common_exactC3f16EB6_+0xde>
  10b013:	41 b1 04             	mov    r9b,0x4
  10b016:	eb 16                	jmp    10b02e <_RINvNtNtCs9TWaYOb1t6o_4core3fmt5float33float_to_exponential_common_exactC3f16EB6_+0xde>
  10b018:	41 0f b7 f2          	movzx  esi,r10w
  10b01c:	83 c6 e7             	add    esi,0xffffffe7
  10b01f:	41 80 f1 01          	xor    r9b,0x1
  10b023:	41 bb 01 00 00 00    	mov    r11d,0x1
  10b029:	eb 03                	jmp    10b02e <_RINvNtNtCs9TWaYOb1t6o_4core3fmt5float33float_to_exponential_common_exactC3f16EB6_+0xde>
  10b02b:	41 b1 03             	mov    r9b,0x3
  10b02e:	4c 89 65 90          	mov    QWORD PTR [rbp-0x70],r12
  10b032:	48 c7 45 98 01 00 00 	mov    QWORD PTR [rbp-0x68],0x1
  10b039:	00 
  10b03a:	4c 89 5d a0          	mov    QWORD PTR [rbp-0x60],r11
  10b03e:	66 89 75 a8          	mov    WORD PTR [rbp-0x58],si
  10b042:	44 88 4d aa          	mov    BYTE PTR [rbp-0x56],r9b
  10b046:	41 80 f9 01          	cmp    r9b,0x1
  10b04a:	0f 86 bd 00 00 00    	jbe    10b10d <_RINvNtNtCs9TWaYOb1t6o_4core3fmt5float33float_to_exponential_common_exactC3f16EB6_+0x1bd>
  10b050:	41 80 c1 fe          	add    r9b,0xfe
  10b054:	0f 84 72 01 00 00    	je     10b1cc <_RINvNtNtCs9TWaYOb1t6o_4core3fmt5float33float_to_exponential_common_exactC3f16EB6_+0x27c>
  10b05a:	41 89 c4             	mov    r12d,eax
  10b05d:	41 c1 ec 0f          	shr    r12d,0xf
  10b061:	66 85 c0             	test   ax,ax
  10b064:	4c 8d 2d 3c 7a ff ff 	lea    r13,[rip+0xffffffffffff7a3c]        # 102aa7 <_RNvNtNtNtCs9TWaYOb1t6o_4core7unicode12unicode_data9uppercase17BITSET_CHUNKS_MAP+0x2d0>
  10b06b:	48 8d 05 36 7a ff ff 	lea    rax,[rip+0xffffffffffff7a36]        # 102aa8 <_RNvNtNtNtCs9TWaYOb1t6o_4core7unicode12unicode_data9uppercase17BITSET_CHUNKS_MAP+0x2d1>
  10b072:	49 0f 48 c5          	cmovs  rax,r13
  10b076:	be 01 00 00 00       	mov    esi,0x1
  10b07b:	4c 0f 49 ee          	cmovns r13,rsi
  10b07f:	84 d2                	test   dl,dl
  10b081:	ba 01 00 00 00       	mov    edx,0x1
  10b086:	4c 0f 45 e2          	cmovne r12,rdx
  10b08a:	4c 0f 45 e8          	cmovne r13,rax
  10b08e:	41 80 f9 02          	cmp    r9b,0x2
  10b092:	0f 85 bb 01 00 00    	jne    10b253 <_RINvNtNtCs9TWaYOb1t6o_4core3fmt5float33float_to_exponential_common_exactC3f16EB6_+0x303>
  10b098:	66 85 c9             	test   cx,cx
  10b09b:	0f 84 cb 01 00 00    	je     10b26c <_RINvNtNtCs9TWaYOb1t6o_4core3fmt5float33float_to_exponential_common_exactC3f16EB6_+0x31c>
  10b0a1:	66 c7 85 00 ff ff ff 	mov    WORD PTR [rbp-0x100],0x2
  10b0a8:	02 00 
  10b0aa:	48 8d 05 ff 79 ff ff 	lea    rax,[rip+0xffffffffffff79ff]        # 102ab0 <_RNvNtNtNtCs9TWaYOb1t6o_4core7unicode12unicode_data9uppercase17BITSET_CHUNKS_MAP+0x2d9>
  10b0b1:	48 89 85 08 ff ff ff 	mov    QWORD PTR [rbp-0xf8],rax
  10b0b8:	48 c7 85 10 ff ff ff 	mov    QWORD PTR [rbp-0xf0],0x2
  10b0bf:	02 00 00 00 
  10b0c3:	66 c7 85 18 ff ff ff 	mov    WORD PTR [rbp-0xe8],0x0
  10b0ca:	00 00 
  10b0cc:	4c 89 b5 20 ff ff ff 	mov    QWORD PTR [rbp-0xe0],r14
  10b0d3:	48 8d 05 02 7a ff ff 	lea    rax,[rip+0xffffffffffff7a02]        # 102adc <_RNvNtNtNtCs9TWaYOb1t6o_4core7unicode12unicode_data9uppercase17BITSET_CHUNKS_MAP+0x305>
  10b0da:	48 8d 0d f9 79 ff ff 	lea    rcx,[rip+0xffffffffffff79f9]        # 102ada <_RNvNtNtNtCs9TWaYOb1t6o_4core7unicode12unicode_data9uppercase17BITSET_CHUNKS_MAP+0x303>
  10b0e1:	45 84 c0             	test   r8b,r8b
  10b0e4:	48 0f 45 c8          	cmovne rcx,rax
  10b0e8:	66 c7 85 30 ff ff ff 	mov    WORD PTR [rbp-0xd0],0x2
  10b0ef:	02 00 
  10b0f1:	48 89 8d 38 ff ff ff 	mov    QWORD PTR [rbp-0xc8],rcx
  10b0f8:	48 c7 85 40 ff ff ff 	mov    QWORD PTR [rbp-0xc0],0x2
  10b0ff:	02 00 00 00 
  10b103:	ba 03 00 00 00       	mov    edx,0x3
  10b108:	e9 8f 01 00 00       	jmp    10b29c <_RINvNtNtCs9TWaYOb1t6o_4core3fmt5float33float_to_exponential_common_exactC3f16EB6_+0x34c>
  10b10d:	44 89 45 d4          	mov    DWORD PTR [rbp-0x2c],r8d
  10b111:	41 89 c4             	mov    r12d,eax
  10b114:	41 c1 ec 0f          	shr    r12d,0xf
  10b118:	66 85 c0             	test   ax,ax
  10b11b:	4c 8d 2d 85 79 ff ff 	lea    r13,[rip+0xffffffffffff7985]        # 102aa7 <_RNvNtNtNtCs9TWaYOb1t6o_4core7unicode12unicode_data9uppercase17BITSET_CHUNKS_MAP+0x2d0>
  10b122:	48 8d 05 7f 79 ff ff 	lea    rax,[rip+0xffffffffffff797f]        # 102aa8 <_RNvNtNtNtCs9TWaYOb1t6o_4core7unicode12unicode_data9uppercase17BITSET_CHUNKS_MAP+0x2d1>
  10b129:	49 0f 48 c5          	cmovs  rax,r13
  10b12d:	b9 01 00 00 00       	mov    ecx,0x1
  10b132:	4c 0f 49 e9          	cmovns r13,rcx
  10b136:	84 d2                	test   dl,dl
  10b138:	4c 0f 45 e1          	cmovne r12,rcx
  10b13c:	4c 0f 45 e8          	cmovne r13,rax
  10b140:	66 85 f6             	test   si,si
  10b143:	48 c7 c0 f4 ff ff ff 	mov    rax,0xfffffffffffffff4
  10b14a:	b9 05 00 00 00       	mov    ecx,0x5
  10b14f:	48 0f 48 c8          	cmovs  rcx,rax
  10b153:	48 0f bf c6          	movsx  rax,si
  10b157:	48 0f af c1          	imul   rax,rcx
  10b15b:	48 c1 e8 04          	shr    rax,0x4
  10b15f:	48 83 c0 15          	add    rax,0x15
  10b163:	4d 8d 7e 01          	lea    r15,[r14+0x1]
  10b167:	4c 39 f0             	cmp    rax,r14
  10b16a:	4c 0f 46 f8          	cmovbe r15,rax
  10b16e:	49 81 ff 01 04 00 00 	cmp    r15,0x401
  10b175:	0f 83 53 01 00 00    	jae    10b2ce <_RINvNtNtCs9TWaYOb1t6o_4core3fmt5float33float_to_exponential_common_exactC3f16EB6_+0x37e>
  10b17b:	48 89 fb             	mov    rbx,rdi
  10b17e:	48 8d bd 00 ff ff ff 	lea    rdi,[rbp-0x100]
  10b185:	48 8d 75 90          	lea    rsi,[rbp-0x70]
  10b189:	48 8d 95 00 fb ff ff 	lea    rdx,[rbp-0x500]
  10b190:	4c 89 f9             	mov    rcx,r15
  10b193:	41 b8 00 80 00 00    	mov    r8d,0x8000
  10b199:	ff 15 21 05 02 00    	call   QWORD PTR [rip+0x20521]        # 12b6c0 <_RNvNtCsditBB9aEfcw_17compiler_builtins3mem7memmove+0x90>
  10b19f:	48 83 bd 00 ff ff ff 	cmp    QWORD PTR [rbp-0x100],0x0
  10b1a6:	00 
  10b1a7:	74 5f                	je     10b208 <_RINvNtNtCs9TWaYOb1t6o_4core3fmt5float33float_to_exponential_common_exactC3f16EB6_+0x2b8>
  10b1a9:	48 8b 85 10 ff ff ff 	mov    rax,QWORD PTR [rbp-0xf0]
  10b1b0:	48 89 45 c0          	mov    QWORD PTR [rbp-0x40],rax
  10b1b4:	48 8b 85 00 ff ff ff 	mov    rax,QWORD PTR [rbp-0x100]
  10b1bb:	48 8b 8d 08 ff ff ff 	mov    rcx,QWORD PTR [rbp-0xf8]
  10b1c2:	48 89 4d b8          	mov    QWORD PTR [rbp-0x48],rcx
  10b1c6:	48 89 45 b0          	mov    QWORD PTR [rbp-0x50],rax
  10b1ca:	eb 5a                	jmp    10b226 <_RINvNtNtCs9TWaYOb1t6o_4core3fmt5float33float_to_exponential_common_exactC3f16EB6_+0x2d6>
  10b1cc:	66 c7 85 00 ff ff ff 	mov    WORD PTR [rbp-0x100],0x2
  10b1d3:	02 00 
  10b1d5:	48 8d 05 cd 78 ff ff 	lea    rax,[rip+0xffffffffffff78cd]        # 102aa9 <_RNvNtNtNtCs9TWaYOb1t6o_4core7unicode12unicode_data9uppercase17BITSET_CHUNKS_MAP+0x2d2>
  10b1dc:	48 89 85 08 ff ff ff 	mov    QWORD PTR [rbp-0xf8],rax
  10b1e3:	48 c7 85 10 ff ff ff 	mov    QWORD PTR [rbp-0xf0],0x3
  10b1ea:	03 00 00 00 
  10b1ee:	41 bd 01 00 00 00    	mov    r13d,0x1
  10b1f4:	48 8d 85 00 ff ff ff 	lea    rax,[rbp-0x100]
  10b1fb:	45 31 e4             	xor    r12d,r12d
  10b1fe:	ba 01 00 00 00       	mov    edx,0x1
  10b203:	e9 9b 00 00 00       	jmp    10b2a3 <_RINvNtNtCs9TWaYOb1t6o_4core3fmt5float33float_to_exponential_common_exactC3f16EB6_+0x353>
  10b208:	48 8d 7d b0          	lea    rdi,[rbp-0x50]
  10b20c:	48 8d 75 90          	lea    rsi,[rbp-0x70]
  10b210:	48 8d 95 00 fb ff ff 	lea    rdx,[rbp-0x500]
  10b217:	4c 89 f9             	mov    rcx,r15
  10b21a:	41 b8 00 80 00 00    	mov    r8d,0x8000
  10b220:	ff 15 9a 05 02 00    	call   QWORD PTR [rip+0x2059a]        # 12b7c0 <_RNvNtCsditBB9aEfcw_17compiler_builtins3mem7memmove+0x190>
  10b226:	48 8b 7d b0          	mov    rdi,QWORD PTR [rbp-0x50]
  10b22a:	48 8b 75 b8          	mov    rsi,QWORD PTR [rbp-0x48]
  10b22e:	8b 55 c0             	mov    edx,DWORD PTR [rbp-0x40]
  10b231:	48 c7 04 24 06 00 00 	mov    QWORD PTR [rsp],0x6
  10b238:	00 
  10b239:	44 0f b6 45 d4       	movzx  r8d,BYTE PTR [rbp-0x2c]
  10b23e:	4c 8d 8d 00 ff ff ff 	lea    r9,[rbp-0x100]
  10b245:	4c 89 f1             	mov    rcx,r14
  10b248:	ff 15 62 04 02 00    	call   QWORD PTR [rip+0x20462]        # 12b6b0 <_RNvNtCsditBB9aEfcw_17compiler_builtins3mem7memmove+0x80>
  10b24e:	48 89 df             	mov    rdi,rbx
  10b251:	eb 50                	jmp    10b2a3 <_RINvNtNtCs9TWaYOb1t6o_4core3fmt5float33float_to_exponential_common_exactC3f16EB6_+0x353>
  10b253:	66 c7 85 00 ff ff ff 	mov    WORD PTR [rbp-0x100],0x2
  10b25a:	02 00 
  10b25c:	48 8d 05 49 78 ff ff 	lea    rax,[rip+0xffffffffffff7849]        # 102aac <_RNvNtNtNtCs9TWaYOb1t6o_4core7unicode12unicode_data9uppercase17BITSET_CHUNKS_MAP+0x2d5>
  10b263:	48 89 85 08 ff ff ff 	mov    QWORD PTR [rbp-0xf8],rax
  10b26a:	eb 25                	jmp    10b291 <_RINvNtNtCs9TWaYOb1t6o_4core3fmt5float33float_to_exponential_common_exactC3f16EB6_+0x341>
  10b26c:	48 8d 05 64 78 ff ff 	lea    rax,[rip+0xffffffffffff7864]        # 102ad7 <_RNvNtNtNtCs9TWaYOb1t6o_4core7unicode12unicode_data9uppercase17BITSET_CHUNKS_MAP+0x300>
  10b273:	48 8d 0d 5a 78 ff ff 	lea    rcx,[rip+0xffffffffffff785a]        # 102ad4 <_RNvNtNtNtCs9TWaYOb1t6o_4core7unicode12unicode_data9uppercase17BITSET_CHUNKS_MAP+0x2fd>
  10b27a:	45 84 c0             	test   r8b,r8b
  10b27d:	48 0f 45 c8          	cmovne rcx,rax
  10b281:	66 c7 85 00 ff ff ff 	mov    WORD PTR [rbp-0x100],0x2
  10b288:	02 00 
  10b28a:	48 89 8d 08 ff ff ff 	mov    QWORD PTR [rbp-0xf8],rcx
  10b291:	48 c7 85 10 ff ff ff 	mov    QWORD PTR [rbp-0xf0],0x3
  10b298:	03 00 00 00 
  10b29c:	48 8d 85 00 ff ff ff 	lea    rax,[rbp-0x100]
  10b2a3:	4c 89 6d b0          	mov    QWORD PTR [rbp-0x50],r13
  10b2a7:	4c 89 65 b8          	mov    QWORD PTR [rbp-0x48],r12
  10b2ab:	48 89 45 c0          	mov    QWORD PTR [rbp-0x40],rax
  10b2af:	48 89 55 c8          	mov    QWORD PTR [rbp-0x38],rdx
  10b2b3:	48 8d 75 b0          	lea    rsi,[rbp-0x50]
  10b2b7:	e8 54 6b 00 00       	call   111e10 <_RNvMsa_NtCs9TWaYOb1t6o_4core3fmtNtB5_9Formatter19pad_formatted_parts>
  10b2bc:	48 81 c4 e8 04 00 00 	add    rsp,0x4e8
  10b2c3:	5b                   	pop    rbx
  10b2c4:	41 5c                	pop    r12
  10b2c6:	41 5d                	pop    r13
  10b2c8:	41 5e                	pop    r14
  10b2ca:	41 5f                	pop    r15
  10b2cc:	5d                   	pop    rbp
  10b2cd:	c3                   	ret
  10b2ce:	48 8d 3d 09 78 ff ff 	lea    rdi,[rip+0xffffffffffff7809]        # 102ade <_RNvNtNtNtCs9TWaYOb1t6o_4core7unicode12unicode_data9uppercase17BITSET_CHUNKS_MAP+0x307>
  10b2d5:	48 8d 15 ac 07 02 00 	lea    rdx,[rip+0x207ac]        # 12ba88 <_RNvNtCslB4Q0PG65QT_6hlq_os10vga_writer9GL_VGA_WT+0x140>
  10b2dc:	be 29 00 00 00       	mov    esi,0x29
  10b2e1:	ff 15 f9 03 02 00    	call   QWORD PTR [rip+0x203f9]        # 12b6e0 <_RNvNtCsditBB9aEfcw_17compiler_builtins3mem7memmove+0xb0>

Disassembly of section .text._RINvNtNtCs9TWaYOb1t6o_4core3fmt5float33float_to_exponential_common_exactdEB6_:

000000000010b2f0 <_RINvNtNtCs9TWaYOb1t6o_4core3fmt5float33float_to_exponential_common_exactdEB6_>:
  10b2f0:	55                   	push   rbp
  10b2f1:	48 89 e5             	mov    rbp,rsp
  10b2f4:	41 57                	push   r15
  10b2f6:	41 56                	push   r14
  10b2f8:	41 55                	push   r13
  10b2fa:	41 54                	push   r12
  10b2fc:	53                   	push   rbx
  10b2fd:	48 81 ec e8 04 00 00 	sub    rsp,0x4e8
  10b304:	49 ba 00 00 00 00 00 	movabs r10,0x10000000000000
  10b30b:	00 10 00 
  10b30e:	49 89 f1             	mov    r9,rsi
  10b311:	49 c1 e9 34          	shr    r9,0x34
  10b315:	48 8d 04 36          	lea    rax,[rsi+rsi*1]
  10b319:	49 bb fe ff ff ff ff 	movabs r11,0x1ffffffffffffe
  10b320:	ff 1f 00 
  10b323:	49 21 c3             	and    r11,rax
  10b326:	49 8d 5a ff          	lea    rbx,[r10-0x1]
  10b32a:	48 21 f3             	and    rbx,rsi
  10b32d:	4e 8d 2c 13          	lea    r13,[rbx+r10*1]
  10b331:	66 41 81 e1 ff 07    	and    r9w,0x7ff
  10b337:	4d 0f 44 eb          	cmove  r13,r11
  10b33b:	44 89 e8             	mov    eax,r13d
  10b33e:	83 e0 01             	and    eax,0x1
  10b341:	49 bb 00 00 00 00 00 	movabs r11,0x7ff0000000000000
  10b348:	00 f0 7f 
  10b34b:	49 89 f6             	mov    r14,rsi
  10b34e:	4d 21 de             	and    r14,r11
  10b351:	45 31 ff             	xor    r15d,r15d
  10b354:	48 85 db             	test   rbx,rbx
  10b357:	41 0f 94 c7          	sete   r15b
  10b35b:	44 89 fb             	mov    ebx,r15d
  10b35e:	80 f3 03             	xor    bl,0x3
  10b361:	4d 85 f6             	test   r14,r14
  10b364:	0f b6 db             	movzx  ebx,bl
  10b367:	41 bc 04 00 00 00    	mov    r12d,0x4
  10b36d:	44 0f 44 e3          	cmove  r12d,ebx
  10b371:	4d 39 de             	cmp    r14,r11
  10b374:	45 0f 44 e7          	cmove  r12d,r15d
  10b378:	45 0f b6 dc          	movzx  r11d,r12b
  10b37c:	48 8d 1d a9 5c ff ff 	lea    rbx,[rip+0xffffffffffff5ca9]        # 10102c <gdt64.pointer+0x1004>
  10b383:	4e 63 1c 9b          	movsxd r11,DWORD PTR [rbx+r11*4]
  10b387:	49 01 db             	add    r11,rbx
  10b38a:	44 0f b7 f1          	movzx  r14d,cx
  10b38e:	41 ff e3             	jmp    r11
  10b391:	b0 02                	mov    al,0x2
  10b393:	eb 4f                	jmp    10b3e4 <_RINvNtNtCs9TWaYOb1t6o_4core3fmt5float33float_to_exponential_common_exactdEB6_+0xf4>
  10b395:	4e 8d 1c 6d 00 00 00 	lea    r11,[r13*2+0x0]
  10b39c:	00 
  10b39d:	31 db                	xor    ebx,ebx
  10b39f:	4d 39 d5             	cmp    r13,r10
  10b3a2:	0f 94 c3             	sete   bl
  10b3a5:	49 bd 00 00 00 00 00 	movabs r13,0x40000000000000
  10b3ac:	00 40 00 
  10b3af:	4d 0f 45 eb          	cmovne r13,r11
  10b3b3:	4c 8d 53 01          	lea    r10,[rbx+0x1]
  10b3b7:	45 0f b7 c9          	movzx  r9d,r9w
  10b3bb:	41 29 d9             	sub    r9d,ebx
  10b3be:	41 81 c1 cc fb ff ff 	add    r9d,0xfffffbcc
  10b3c5:	34 01                	xor    al,0x1
  10b3c7:	eb 1b                	jmp    10b3e4 <_RINvNtNtCs9TWaYOb1t6o_4core3fmt5float33float_to_exponential_common_exactdEB6_+0xf4>
  10b3c9:	b0 04                	mov    al,0x4
  10b3cb:	eb 17                	jmp    10b3e4 <_RINvNtNtCs9TWaYOb1t6o_4core3fmt5float33float_to_exponential_common_exactdEB6_+0xf4>
  10b3cd:	45 0f b7 c9          	movzx  r9d,r9w
  10b3d1:	41 81 c1 cd fb ff ff 	add    r9d,0xfffffbcd
  10b3d8:	34 01                	xor    al,0x1
  10b3da:	41 ba 01 00 00 00    	mov    r10d,0x1
  10b3e0:	eb 02                	jmp    10b3e4 <_RINvNtNtCs9TWaYOb1t6o_4core3fmt5float33float_to_exponential_common_exactdEB6_+0xf4>
  10b3e2:	b0 03                	mov    al,0x3
  10b3e4:	4c 89 6d 90          	mov    QWORD PTR [rbp-0x70],r13
  10b3e8:	48 c7 45 98 01 00 00 	mov    QWORD PTR [rbp-0x68],0x1
  10b3ef:	00 
  10b3f0:	4c 89 55 a0          	mov    QWORD PTR [rbp-0x60],r10
  10b3f4:	66 44 89 4d a8       	mov    WORD PTR [rbp-0x58],r9w
  10b3f9:	88 45 aa             	mov    BYTE PTR [rbp-0x56],al
  10b3fc:	3c 01                	cmp    al,0x1
  10b3fe:	0f 86 bd 00 00 00    	jbe    10b4c1 <_RINvNtNtCs9TWaYOb1t6o_4core3fmt5float33float_to_exponential_common_exactdEB6_+0x1d1>
  10b404:	04 fe                	add    al,0xfe
  10b406:	0f 84 75 01 00 00    	je     10b581 <_RINvNtNtCs9TWaYOb1t6o_4core3fmt5float33float_to_exponential_common_exactdEB6_+0x291>
  10b40c:	45 89 c1             	mov    r9d,r8d
  10b40f:	49 89 f4             	mov    r12,rsi
  10b412:	49 c1 ec 3f          	shr    r12,0x3f
  10b416:	48 85 f6             	test   rsi,rsi
  10b419:	4c 8d 2d 87 76 ff ff 	lea    r13,[rip+0xffffffffffff7687]        # 102aa7 <_RNvNtNtNtCs9TWaYOb1t6o_4core7unicode12unicode_data9uppercase17BITSET_CHUNKS_MAP+0x2d0>
  10b420:	48 8d 35 81 76 ff ff 	lea    rsi,[rip+0xffffffffffff7681]        # 102aa8 <_RNvNtNtNtCs9TWaYOb1t6o_4core7unicode12unicode_data9uppercase17BITSET_CHUNKS_MAP+0x2d1>
  10b427:	49 0f 48 f5          	cmovs  rsi,r13
  10b42b:	41 b8 01 00 00 00    	mov    r8d,0x1
  10b431:	4d 0f 49 e8          	cmovns r13,r8
  10b435:	84 d2                	test   dl,dl
  10b437:	ba 01 00 00 00       	mov    edx,0x1
  10b43c:	4c 0f 45 e2          	cmovne r12,rdx
  10b440:	4c 0f 45 ee          	cmovne r13,rsi
  10b444:	3c 02                	cmp    al,0x2
  10b446:	0f 85 bc 01 00 00    	jne    10b608 <_RINvNtNtCs9TWaYOb1t6o_4core3fmt5float33float_to_exponential_common_exactdEB6_+0x318>
  10b44c:	66 85 c9             	test   cx,cx
  10b44f:	0f 84 cc 01 00 00    	je     10b621 <_RINvNtNtCs9TWaYOb1t6o_4core3fmt5float33float_to_exponential_common_exactdEB6_+0x331>
  10b455:	66 c7 85 00 ff ff ff 	mov    WORD PTR [rbp-0x100],0x2
  10b45c:	02 00 
  10b45e:	48 8d 05 4b 76 ff ff 	lea    rax,[rip+0xffffffffffff764b]        # 102ab0 <_RNvNtNtNtCs9TWaYOb1t6o_4core7unicode12unicode_data9uppercase17BITSET_CHUNKS_MAP+0x2d9>
  10b465:	48 89 85 08 ff ff ff 	mov    QWORD PTR [rbp-0xf8],rax
  10b46c:	48 c7 85 10 ff ff ff 	mov    QWORD PTR [rbp-0xf0],0x2
  10b473:	02 00 00 00 
  10b477:	66 c7 85 18 ff ff ff 	mov    WORD PTR [rbp-0xe8],0x0
  10b47e:	00 00 
  10b480:	4c 89 b5 20 ff ff ff 	mov    QWORD PTR [rbp-0xe0],r14
  10b487:	48 8d 05 4e 76 ff ff 	lea    rax,[rip+0xffffffffffff764e]        # 102adc <_RNvNtNtNtCs9TWaYOb1t6o_4core7unicode12unicode_data9uppercase17BITSET_CHUNKS_MAP+0x305>
  10b48e:	48 8d 0d 45 76 ff ff 	lea    rcx,[rip+0xffffffffffff7645]        # 102ada <_RNvNtNtNtCs9TWaYOb1t6o_4core7unicode12unicode_data9uppercase17BITSET_CHUNKS_MAP+0x303>
  10b495:	45 84 c9             	test   r9b,r9b
  10b498:	48 0f 45 c8          	cmovne rcx,rax
  10b49c:	66 c7 85 30 ff ff ff 	mov    WORD PTR [rbp-0xd0],0x2
  10b4a3:	02 00 
  10b4a5:	48 89 8d 38 ff ff ff 	mov    QWORD PTR [rbp-0xc8],rcx
  10b4ac:	48 c7 85 40 ff ff ff 	mov    QWORD PTR [rbp-0xc0],0x2
  10b4b3:	02 00 00 00 
  10b4b7:	ba 03 00 00 00       	mov    edx,0x3
  10b4bc:	e9 90 01 00 00       	jmp    10b651 <_RINvNtNtCs9TWaYOb1t6o_4core3fmt5float33float_to_exponential_common_exactdEB6_+0x361>
  10b4c1:	44 89 45 d4          	mov    DWORD PTR [rbp-0x2c],r8d
  10b4c5:	49 89 f4             	mov    r12,rsi
  10b4c8:	49 c1 ec 3f          	shr    r12,0x3f
  10b4cc:	48 85 f6             	test   rsi,rsi
  10b4cf:	4c 8d 2d d1 75 ff ff 	lea    r13,[rip+0xffffffffffff75d1]        # 102aa7 <_RNvNtNtNtCs9TWaYOb1t6o_4core7unicode12unicode_data9uppercase17BITSET_CHUNKS_MAP+0x2d0>
  10b4d6:	48 8d 05 cb 75 ff ff 	lea    rax,[rip+0xffffffffffff75cb]        # 102aa8 <_RNvNtNtNtCs9TWaYOb1t6o_4core7unicode12unicode_data9uppercase17BITSET_CHUNKS_MAP+0x2d1>
  10b4dd:	49 0f 48 c5          	cmovs  rax,r13
  10b4e1:	b9 01 00 00 00       	mov    ecx,0x1
  10b4e6:	4c 0f 49 e9          	cmovns r13,rcx
  10b4ea:	84 d2                	test   dl,dl
  10b4ec:	4c 0f 45 e1          	cmovne r12,rcx
  10b4f0:	4c 0f 45 e8          	cmovne r13,rax
  10b4f4:	66 45 85 c9          	test   r9w,r9w
  10b4f8:	48 c7 c0 f4 ff ff ff 	mov    rax,0xfffffffffffffff4
  10b4ff:	b9 05 00 00 00       	mov    ecx,0x5
  10b504:	48 0f 48 c8          	cmovs  rcx,rax
  10b508:	49 0f bf c1          	movsx  rax,r9w
  10b50c:	48 0f af c1          	imul   rax,rcx
  10b510:	48 c1 e8 04          	shr    rax,0x4
  10b514:	48 83 c0 15          	add    rax,0x15
  10b518:	4d 8d 7e 01          	lea    r15,[r14+0x1]
  10b51c:	4c 39 f0             	cmp    rax,r14
  10b51f:	4c 0f 46 f8          	cmovbe r15,rax
  10b523:	49 81 ff 01 04 00 00 	cmp    r15,0x401
  10b52a:	0f 83 53 01 00 00    	jae    10b683 <_RINvNtNtCs9TWaYOb1t6o_4core3fmt5float33float_to_exponential_common_exactdEB6_+0x393>
  10b530:	48 89 fb             	mov    rbx,rdi
  10b533:	48 8d bd 00 ff ff ff 	lea    rdi,[rbp-0x100]
  10b53a:	48 8d 75 90          	lea    rsi,[rbp-0x70]
  10b53e:	48 8d 95 00 fb ff ff 	lea    rdx,[rbp-0x500]
  10b545:	4c 89 f9             	mov    rcx,r15
  10b548:	41 b8 00 80 00 00    	mov    r8d,0x8000
  10b54e:	ff 15 6c 01 02 00    	call   QWORD PTR [rip+0x2016c]        # 12b6c0 <_RNvNtCsditBB9aEfcw_17compiler_builtins3mem7memmove+0x90>
  10b554:	48 83 bd 00 ff ff ff 	cmp    QWORD PTR [rbp-0x100],0x0
  10b55b:	00 
  10b55c:	74 5f                	je     10b5bd <_RINvNtNtCs9TWaYOb1t6o_4core3fmt5float33float_to_exponential_common_exactdEB6_+0x2cd>
  10b55e:	48 8b 85 10 ff ff ff 	mov    rax,QWORD PTR [rbp-0xf0]
  10b565:	48 89 45 c0          	mov    QWORD PTR [rbp-0x40],rax
  10b569:	48 8b 85 00 ff ff ff 	mov    rax,QWORD PTR [rbp-0x100]
  10b570:	48 8b 8d 08 ff ff ff 	mov    rcx,QWORD PTR [rbp-0xf8]
  10b577:	48 89 4d b8          	mov    QWORD PTR [rbp-0x48],rcx
  10b57b:	48 89 45 b0          	mov    QWORD PTR [rbp-0x50],rax
  10b57f:	eb 5a                	jmp    10b5db <_RINvNtNtCs9TWaYOb1t6o_4core3fmt5float33float_to_exponential_common_exactdEB6_+0x2eb>
  10b581:	66 c7 85 00 ff ff ff 	mov    WORD PTR [rbp-0x100],0x2
  10b588:	02 00 
  10b58a:	48 8d 05 18 75 ff ff 	lea    rax,[rip+0xffffffffffff7518]        # 102aa9 <_RNvNtNtNtCs9TWaYOb1t6o_4core7unicode12unicode_data9uppercase17BITSET_CHUNKS_MAP+0x2d2>
  10b591:	48 89 85 08 ff ff ff 	mov    QWORD PTR [rbp-0xf8],rax
  10b598:	48 c7 85 10 ff ff ff 	mov    QWORD PTR [rbp-0xf0],0x3
  10b59f:	03 00 00 00 
  10b5a3:	41 bd 01 00 00 00    	mov    r13d,0x1
  10b5a9:	48 8d 85 00 ff ff ff 	lea    rax,[rbp-0x100]
  10b5b0:	45 31 e4             	xor    r12d,r12d
  10b5b3:	ba 01 00 00 00       	mov    edx,0x1
  10b5b8:	e9 9b 00 00 00       	jmp    10b658 <_RINvNtNtCs9TWaYOb1t6o_4core3fmt5float33float_to_exponential_common_exactdEB6_+0x368>
  10b5bd:	48 8d 7d b0          	lea    rdi,[rbp-0x50]
  10b5c1:	48 8d 75 90          	lea    rsi,[rbp-0x70]
  10b5c5:	48 8d 95 00 fb ff ff 	lea    rdx,[rbp-0x500]
  10b5cc:	4c 89 f9             	mov    rcx,r15
  10b5cf:	41 b8 00 80 00 00    	mov    r8d,0x8000
  10b5d5:	ff 15 e5 01 02 00    	call   QWORD PTR [rip+0x201e5]        # 12b7c0 <_RNvNtCsditBB9aEfcw_17compiler_builtins3mem7memmove+0x190>
  10b5db:	48 8b 7d b0          	mov    rdi,QWORD PTR [rbp-0x50]
  10b5df:	48 8b 75 b8          	mov    rsi,QWORD PTR [rbp-0x48]
  10b5e3:	8b 55 c0             	mov    edx,DWORD PTR [rbp-0x40]
  10b5e6:	48 c7 04 24 06 00 00 	mov    QWORD PTR [rsp],0x6
  10b5ed:	00 
  10b5ee:	44 0f b6 45 d4       	movzx  r8d,BYTE PTR [rbp-0x2c]
  10b5f3:	4c 8d 8d 00 ff ff ff 	lea    r9,[rbp-0x100]
  10b5fa:	4c 89 f1             	mov    rcx,r14
  10b5fd:	ff 15 ad 00 02 00    	call   QWORD PTR [rip+0x200ad]        # 12b6b0 <_RNvNtCsditBB9aEfcw_17compiler_builtins3mem7memmove+0x80>
  10b603:	48 89 df             	mov    rdi,rbx
  10b606:	eb 50                	jmp    10b658 <_RINvNtNtCs9TWaYOb1t6o_4core3fmt5float33float_to_exponential_common_exactdEB6_+0x368>
  10b608:	66 c7 85 00 ff ff ff 	mov    WORD PTR [rbp-0x100],0x2
  10b60f:	02 00 
  10b611:	48 8d 05 94 74 ff ff 	lea    rax,[rip+0xffffffffffff7494]        # 102aac <_RNvNtNtNtCs9TWaYOb1t6o_4core7unicode12unicode_data9uppercase17BITSET_CHUNKS_MAP+0x2d5>
  10b618:	48 89 85 08 ff ff ff 	mov    QWORD PTR [rbp-0xf8],rax
  10b61f:	eb 25                	jmp    10b646 <_RINvNtNtCs9TWaYOb1t6o_4core3fmt5float33float_to_exponential_common_exactdEB6_+0x356>
  10b621:	48 8d 05 af 74 ff ff 	lea    rax,[rip+0xffffffffffff74af]        # 102ad7 <_RNvNtNtNtCs9TWaYOb1t6o_4core7unicode12unicode_data9uppercase17BITSET_CHUNKS_MAP+0x300>
  10b628:	48 8d 0d a5 74 ff ff 	lea    rcx,[rip+0xffffffffffff74a5]        # 102ad4 <_RNvNtNtNtCs9TWaYOb1t6o_4core7unicode12unicode_data9uppercase17BITSET_CHUNKS_MAP+0x2fd>
  10b62f:	45 84 c9             	test   r9b,r9b
  10b632:	48 0f 45 c8          	cmovne rcx,rax
  10b636:	66 c7 85 00 ff ff ff 	mov    WORD PTR [rbp-0x100],0x2
  10b63d:	02 00 
  10b63f:	48 89 8d 08 ff ff ff 	mov    QWORD PTR [rbp-0xf8],rcx
  10b646:	48 c7 85 10 ff ff ff 	mov    QWORD PTR [rbp-0xf0],0x3
  10b64d:	03 00 00 00 
  10b651:	48 8d 85 00 ff ff ff 	lea    rax,[rbp-0x100]
  10b658:	4c 89 6d b0          	mov    QWORD PTR [rbp-0x50],r13
  10b65c:	4c 89 65 b8          	mov    QWORD PTR [rbp-0x48],r12
  10b660:	48 89 45 c0          	mov    QWORD PTR [rbp-0x40],rax
  10b664:	48 89 55 c8          	mov    QWORD PTR [rbp-0x38],rdx
  10b668:	48 8d 75 b0          	lea    rsi,[rbp-0x50]
  10b66c:	e8 9f 67 00 00       	call   111e10 <_RNvMsa_NtCs9TWaYOb1t6o_4core3fmtNtB5_9Formatter19pad_formatted_parts>
  10b671:	48 81 c4 e8 04 00 00 	add    rsp,0x4e8
  10b678:	5b                   	pop    rbx
  10b679:	41 5c                	pop    r12
  10b67b:	41 5d                	pop    r13
  10b67d:	41 5e                	pop    r14
  10b67f:	41 5f                	pop    r15
  10b681:	5d                   	pop    rbp
  10b682:	c3                   	ret
  10b683:	48 8d 3d 54 74 ff ff 	lea    rdi,[rip+0xffffffffffff7454]        # 102ade <_RNvNtNtNtCs9TWaYOb1t6o_4core7unicode12unicode_data9uppercase17BITSET_CHUNKS_MAP+0x307>
  10b68a:	48 8d 15 f7 03 02 00 	lea    rdx,[rip+0x203f7]        # 12ba88 <_RNvNtCslB4Q0PG65QT_6hlq_os10vga_writer9GL_VGA_WT+0x140>
  10b691:	be 29 00 00 00       	mov    esi,0x29
  10b696:	ff 15 44 00 02 00    	call   QWORD PTR [rip+0x20044]        # 12b6e0 <_RNvNtCsditBB9aEfcw_17compiler_builtins3mem7memmove+0xb0>

Disassembly of section .text._RINvNtNtCs9TWaYOb1t6o_4core3fmt5float33float_to_exponential_common_exactfEB6_:

000000000010b6a0 <_RINvNtNtCs9TWaYOb1t6o_4core3fmt5float33float_to_exponential_common_exactfEB6_>:
  10b6a0:	55                   	push   rbp
  10b6a1:	48 89 e5             	mov    rbp,rsp
  10b6a4:	41 57                	push   r15
  10b6a6:	41 56                	push   r14
  10b6a8:	41 55                	push   r13
  10b6aa:	41 54                	push   r12
  10b6ac:	53                   	push   rbx
  10b6ad:	48 81 ec e8 04 00 00 	sub    rsp,0x4e8
  10b6b4:	41 89 f1             	mov    r9d,esi
  10b6b7:	41 c1 e9 17          	shr    r9d,0x17
  10b6bb:	8d 04 36             	lea    eax,[rsi+rsi*1]
  10b6be:	25 fe ff ff 00       	and    eax,0xfffffe
  10b6c3:	41 89 f2             	mov    r10d,esi
  10b6c6:	41 81 e2 ff ff 7f 00 	and    r10d,0x7fffff
  10b6cd:	45 8d a2 00 00 80 00 	lea    r12d,[r10+0x800000]
  10b6d4:	66 41 81 e1 ff 00    	and    r9w,0xff
  10b6da:	44 0f 44 e0          	cmove  r12d,eax
  10b6de:	44 89 e0             	mov    eax,r12d
  10b6e1:	83 e0 01             	and    eax,0x1
  10b6e4:	41 89 f3             	mov    r11d,esi
  10b6e7:	41 81 e3 00 00 80 7f 	and    r11d,0x7f800000
  10b6ee:	31 db                	xor    ebx,ebx
  10b6f0:	45 85 d2             	test   r10d,r10d
  10b6f3:	0f 94 c3             	sete   bl
  10b6f6:	41 89 da             	mov    r10d,ebx
  10b6f9:	41 80 f2 03          	xor    r10b,0x3
  10b6fd:	45 85 db             	test   r11d,r11d
  10b700:	45 0f b6 d2          	movzx  r10d,r10b
  10b704:	41 bf 04 00 00 00    	mov    r15d,0x4
  10b70a:	45 0f 44 fa          	cmove  r15d,r10d
  10b70e:	44 0f b7 f1          	movzx  r14d,cx
  10b712:	41 81 fb 00 00 80 7f 	cmp    r11d,0x7f800000
  10b719:	44 0f 44 fb          	cmove  r15d,ebx
  10b71d:	45 0f b6 d7          	movzx  r10d,r15b
  10b721:	4c 8d 1d 18 59 ff ff 	lea    r11,[rip+0xffffffffffff5918]        # 101040 <gdt64.pointer+0x1018>
  10b728:	4f 63 14 93          	movsxd r10,DWORD PTR [r11+r10*4]
  10b72c:	4d 01 da             	add    r10,r11
  10b72f:	41 ff e2             	jmp    r10
  10b732:	b0 02                	mov    al,0x2
  10b734:	eb 4d                	jmp    10b783 <_RINvNtNtCs9TWaYOb1t6o_4core3fmt5float33float_to_exponential_common_exactfEB6_+0xe3>
  10b736:	47 8d 14 24          	lea    r10d,[r12+r12*1]
  10b73a:	45 31 db             	xor    r11d,r11d
  10b73d:	49 81 fc 00 00 80 00 	cmp    r12,0x800000
  10b744:	41 0f 94 c3          	sete   r11b
  10b748:	41 bc 00 00 00 02    	mov    r12d,0x2000000
  10b74e:	4d 0f 45 e2          	cmovne r12,r10
  10b752:	4d 8d 53 01          	lea    r10,[r11+0x1]
  10b756:	41 81 f3 69 ff ff ff 	xor    r11d,0xffffff69
  10b75d:	45 0f b7 c9          	movzx  r9d,r9w
  10b761:	45 01 d9             	add    r9d,r11d
  10b764:	34 01                	xor    al,0x1
  10b766:	eb 1b                	jmp    10b783 <_RINvNtNtCs9TWaYOb1t6o_4core3fmt5float33float_to_exponential_common_exactfEB6_+0xe3>
  10b768:	b0 04                	mov    al,0x4
  10b76a:	eb 17                	jmp    10b783 <_RINvNtNtCs9TWaYOb1t6o_4core3fmt5float33float_to_exponential_common_exactfEB6_+0xe3>
  10b76c:	45 0f b7 c9          	movzx  r9d,r9w
  10b770:	41 81 c1 6a ff ff ff 	add    r9d,0xffffff6a
  10b777:	34 01                	xor    al,0x1
  10b779:	41 ba 01 00 00 00    	mov    r10d,0x1
  10b77f:	eb 02                	jmp    10b783 <_RINvNtNtCs9TWaYOb1t6o_4core3fmt5float33float_to_exponential_common_exactfEB6_+0xe3>
  10b781:	b0 03                	mov    al,0x3
  10b783:	4c 89 65 90          	mov    QWORD PTR [rbp-0x70],r12
  10b787:	48 c7 45 98 01 00 00 	mov    QWORD PTR [rbp-0x68],0x1
  10b78e:	00 
  10b78f:	4c 89 55 a0          	mov    QWORD PTR [rbp-0x60],r10
  10b793:	66 44 89 4d a8       	mov    WORD PTR [rbp-0x58],r9w
  10b798:	88 45 aa             	mov    BYTE PTR [rbp-0x56],al
  10b79b:	3c 01                	cmp    al,0x1
  10b79d:	0f 86 bc 00 00 00    	jbe    10b85f <_RINvNtNtCs9TWaYOb1t6o_4core3fmt5float33float_to_exponential_common_exactfEB6_+0x1bf>
  10b7a3:	04 fe                	add    al,0xfe
  10b7a5:	0f 84 73 01 00 00    	je     10b91e <_RINvNtNtCs9TWaYOb1t6o_4core3fmt5float33float_to_exponential_common_exactfEB6_+0x27e>
  10b7ab:	45 89 c1             	mov    r9d,r8d
  10b7ae:	41 89 f4             	mov    r12d,esi
  10b7b1:	41 c1 ec 1f          	shr    r12d,0x1f
  10b7b5:	85 f6                	test   esi,esi
  10b7b7:	4c 8d 2d e9 72 ff ff 	lea    r13,[rip+0xffffffffffff72e9]        # 102aa7 <_RNvNtNtNtCs9TWaYOb1t6o_4core7unicode12unicode_data9uppercase17BITSET_CHUNKS_MAP+0x2d0>
  10b7be:	48 8d 35 e3 72 ff ff 	lea    rsi,[rip+0xffffffffffff72e3]        # 102aa8 <_RNvNtNtNtCs9TWaYOb1t6o_4core7unicode12unicode_data9uppercase17BITSET_CHUNKS_MAP+0x2d1>
  10b7c5:	49 0f 48 f5          	cmovs  rsi,r13
  10b7c9:	41 b8 01 00 00 00    	mov    r8d,0x1
  10b7cf:	4d 0f 49 e8          	cmovns r13,r8
  10b7d3:	84 d2                	test   dl,dl
  10b7d5:	ba 01 00 00 00       	mov    edx,0x1
  10b7da:	4c 0f 45 e2          	cmovne r12,rdx
  10b7de:	4c 0f 45 ee          	cmovne r13,rsi
  10b7e2:	3c 02                	cmp    al,0x2
  10b7e4:	0f 85 bb 01 00 00    	jne    10b9a5 <_RINvNtNtCs9TWaYOb1t6o_4core3fmt5float33float_to_exponential_common_exactfEB6_+0x305>
  10b7ea:	66 85 c9             	test   cx,cx
  10b7ed:	0f 84 cb 01 00 00    	je     10b9be <_RINvNtNtCs9TWaYOb1t6o_4core3fmt5float33float_to_exponential_common_exactfEB6_+0x31e>
  10b7f3:	66 c7 85 00 ff ff ff 	mov    WORD PTR [rbp-0x100],0x2
  10b7fa:	02 00 
  10b7fc:	48 8d 05 ad 72 ff ff 	lea    rax,[rip+0xffffffffffff72ad]        # 102ab0 <_RNvNtNtNtCs9TWaYOb1t6o_4core7unicode12unicode_data9uppercase17BITSET_CHUNKS_MAP+0x2d9>
  10b803:	48 89 85 08 ff ff ff 	mov    QWORD PTR [rbp-0xf8],rax
  10b80a:	48 c7 85 10 ff ff ff 	mov    QWORD PTR [rbp-0xf0],0x2
  10b811:	02 00 00 00 
  10b815:	66 c7 85 18 ff ff ff 	mov    WORD PTR [rbp-0xe8],0x0
  10b81c:	00 00 
  10b81e:	4c 89 b5 20 ff ff ff 	mov    QWORD PTR [rbp-0xe0],r14
  10b825:	48 8d 05 b0 72 ff ff 	lea    rax,[rip+0xffffffffffff72b0]        # 102adc <_RNvNtNtNtCs9TWaYOb1t6o_4core7unicode12unicode_data9uppercase17BITSET_CHUNKS_MAP+0x305>
  10b82c:	48 8d 0d a7 72 ff ff 	lea    rcx,[rip+0xffffffffffff72a7]        # 102ada <_RNvNtNtNtCs9TWaYOb1t6o_4core7unicode12unicode_data9uppercase17BITSET_CHUNKS_MAP+0x303>
  10b833:	45 84 c9             	test   r9b,r9b
  10b836:	48 0f 45 c8          	cmovne rcx,rax
  10b83a:	66 c7 85 30 ff ff ff 	mov    WORD PTR [rbp-0xd0],0x2
  10b841:	02 00 
  10b843:	48 89 8d 38 ff ff ff 	mov    QWORD PTR [rbp-0xc8],rcx
  10b84a:	48 c7 85 40 ff ff ff 	mov    QWORD PTR [rbp-0xc0],0x2
  10b851:	02 00 00 00 
  10b855:	ba 03 00 00 00       	mov    edx,0x3
  10b85a:	e9 8f 01 00 00       	jmp    10b9ee <_RINvNtNtCs9TWaYOb1t6o_4core3fmt5float33float_to_exponential_common_exactfEB6_+0x34e>
  10b85f:	44 89 45 d4          	mov    DWORD PTR [rbp-0x2c],r8d
  10b863:	41 89 f4             	mov    r12d,esi
  10b866:	41 c1 ec 1f          	shr    r12d,0x1f
  10b86a:	85 f6                	test   esi,esi
  10b86c:	4c 8d 2d 34 72 ff ff 	lea    r13,[rip+0xffffffffffff7234]        # 102aa7 <_RNvNtNtNtCs9TWaYOb1t6o_4core7unicode12unicode_data9uppercase17BITSET_CHUNKS_MAP+0x2d0>
  10b873:	48 8d 05 2e 72 ff ff 	lea    rax,[rip+0xffffffffffff722e]        # 102aa8 <_RNvNtNtNtCs9TWaYOb1t6o_4core7unicode12unicode_data9uppercase17BITSET_CHUNKS_MAP+0x2d1>
  10b87a:	49 0f 48 c5          	cmovs  rax,r13
  10b87e:	b9 01 00 00 00       	mov    ecx,0x1
  10b883:	4c 0f 49 e9          	cmovns r13,rcx
  10b887:	84 d2                	test   dl,dl
  10b889:	4c 0f 45 e1          	cmovne r12,rcx
  10b88d:	4c 0f 45 e8          	cmovne r13,rax
  10b891:	66 45 85 c9          	test   r9w,r9w
  10b895:	48 c7 c0 f4 ff ff ff 	mov    rax,0xfffffffffffffff4
  10b89c:	b9 05 00 00 00       	mov    ecx,0x5
  10b8a1:	48 0f 48 c8          	cmovs  rcx,rax
  10b8a5:	49 0f bf c1          	movsx  rax,r9w
  10b8a9:	48 0f af c1          	imul   rax,rcx
  10b8ad:	48 c1 e8 04          	shr    rax,0x4
  10b8b1:	48 83 c0 15          	add    rax,0x15
  10b8b5:	4d 8d 7e 01          	lea    r15,[r14+0x1]
  10b8b9:	4c 39 f0             	cmp    rax,r14
  10b8bc:	4c 0f 46 f8          	cmovbe r15,rax
  10b8c0:	49 81 ff 01 04 00 00 	cmp    r15,0x401
  10b8c7:	0f 83 53 01 00 00    	jae    10ba20 <_RINvNtNtCs9TWaYOb1t6o_4core3fmt5float33float_to_exponential_common_exactfEB6_+0x380>
  10b8cd:	48 89 fb             	mov    rbx,rdi
  10b8d0:	48 8d bd 00 ff ff ff 	lea    rdi,[rbp-0x100]
  10b8d7:	48 8d 75 90          	lea    rsi,[rbp-0x70]
  10b8db:	48 8d 95 00 fb ff ff 	lea    rdx,[rbp-0x500]
  10b8e2:	4c 89 f9             	mov    rcx,r15
  10b8e5:	41 b8 00 80 00 00    	mov    r8d,0x8000
  10b8eb:	ff 15 cf fd 01 00    	call   QWORD PTR [rip+0x1fdcf]        # 12b6c0 <_RNvNtCsditBB9aEfcw_17compiler_builtins3mem7memmove+0x90>
  10b8f1:	48 83 bd 00 ff ff ff 	cmp    QWORD PTR [rbp-0x100],0x0
  10b8f8:	00 
  10b8f9:	74 5f                	je     10b95a <_RINvNtNtCs9TWaYOb1t6o_4core3fmt5float33float_to_exponential_common_exactfEB6_+0x2ba>
  10b8fb:	48 8b 85 10 ff ff ff 	mov    rax,QWORD PTR [rbp-0xf0]
  10b902:	48 89 45 c0          	mov    QWORD PTR [rbp-0x40],rax
  10b906:	48 8b 85 00 ff ff ff 	mov    rax,QWORD PTR [rbp-0x100]
  10b90d:	48 8b 8d 08 ff ff ff 	mov    rcx,QWORD PTR [rbp-0xf8]
  10b914:	48 89 4d b8          	mov    QWORD PTR [rbp-0x48],rcx
  10b918:	48 89 45 b0          	mov    QWORD PTR [rbp-0x50],rax
  10b91c:	eb 5a                	jmp    10b978 <_RINvNtNtCs9TWaYOb1t6o_4core3fmt5float33float_to_exponential_common_exactfEB6_+0x2d8>
  10b91e:	66 c7 85 00 ff ff ff 	mov    WORD PTR [rbp-0x100],0x2
  10b925:	02 00 
  10b927:	48 8d 05 7b 71 ff ff 	lea    rax,[rip+0xffffffffffff717b]        # 102aa9 <_RNvNtNtNtCs9TWaYOb1t6o_4core7unicode12unicode_data9uppercase17BITSET_CHUNKS_MAP+0x2d2>
  10b92e:	48 89 85 08 ff ff ff 	mov    QWORD PTR [rbp-0xf8],rax
  10b935:	48 c7 85 10 ff ff ff 	mov    QWORD PTR [rbp-0xf0],0x3
  10b93c:	03 00 00 00 
  10b940:	41 bd 01 00 00 00    	mov    r13d,0x1
  10b946:	48 8d 85 00 ff ff ff 	lea    rax,[rbp-0x100]
  10b94d:	45 31 e4             	xor    r12d,r12d
  10b950:	ba 01 00 00 00       	mov    edx,0x1
  10b955:	e9 9b 00 00 00       	jmp    10b9f5 <_RINvNtNtCs9TWaYOb1t6o_4core3fmt5float33float_to_exponential_common_exactfEB6_+0x355>
  10b95a:	48 8d 7d b0          	lea    rdi,[rbp-0x50]
  10b95e:	48 8d 75 90          	lea    rsi,[rbp-0x70]
  10b962:	48 8d 95 00 fb ff ff 	lea    rdx,[rbp-0x500]
  10b969:	4c 89 f9             	mov    rcx,r15
  10b96c:	41 b8 00 80 00 00    	mov    r8d,0x8000
  10b972:	ff 15 48 fe 01 00    	call   QWORD PTR [rip+0x1fe48]        # 12b7c0 <_RNvNtCsditBB9aEfcw_17compiler_builtins3mem7memmove+0x190>
  10b978:	48 8b 7d b0          	mov    rdi,QWORD PTR [rbp-0x50]
  10b97c:	48 8b 75 b8          	mov    rsi,QWORD PTR [rbp-0x48]
  10b980:	8b 55 c0             	mov    edx,DWORD PTR [rbp-0x40]
  10b983:	48 c7 04 24 06 00 00 	mov    QWORD PTR [rsp],0x6
  10b98a:	00 
  10b98b:	44 0f b6 45 d4       	movzx  r8d,BYTE PTR [rbp-0x2c]
  10b990:	4c 8d 8d 00 ff ff ff 	lea    r9,[rbp-0x100]
  10b997:	4c 89 f1             	mov    rcx,r14
  10b99a:	ff 15 10 fd 01 00    	call   QWORD PTR [rip+0x1fd10]        # 12b6b0 <_RNvNtCsditBB9aEfcw_17compiler_builtins3mem7memmove+0x80>
  10b9a0:	48 89 df             	mov    rdi,rbx
  10b9a3:	eb 50                	jmp    10b9f5 <_RINvNtNtCs9TWaYOb1t6o_4core3fmt5float33float_to_exponential_common_exactfEB6_+0x355>
  10b9a5:	66 c7 85 00 ff ff ff 	mov    WORD PTR [rbp-0x100],0x2
  10b9ac:	02 00 
  10b9ae:	48 8d 05 f7 70 ff ff 	lea    rax,[rip+0xffffffffffff70f7]        # 102aac <_RNvNtNtNtCs9TWaYOb1t6o_4core7unicode12unicode_data9uppercase17BITSET_CHUNKS_MAP+0x2d5>
  10b9b5:	48 89 85 08 ff ff ff 	mov    QWORD PTR [rbp-0xf8],rax
  10b9bc:	eb 25                	jmp    10b9e3 <_RINvNtNtCs9TWaYOb1t6o_4core3fmt5float33float_to_exponential_common_exactfEB6_+0x343>
  10b9be:	48 8d 05 12 71 ff ff 	lea    rax,[rip+0xffffffffffff7112]        # 102ad7 <_RNvNtNtNtCs9TWaYOb1t6o_4core7unicode12unicode_data9uppercase17BITSET_CHUNKS_MAP+0x300>
  10b9c5:	48 8d 0d 08 71 ff ff 	lea    rcx,[rip+0xffffffffffff7108]        # 102ad4 <_RNvNtNtNtCs9TWaYOb1t6o_4core7unicode12unicode_data9uppercase17BITSET_CHUNKS_MAP+0x2fd>
  10b9cc:	45 84 c9             	test   r9b,r9b
  10b9cf:	48 0f 45 c8          	cmovne rcx,rax
  10b9d3:	66 c7 85 00 ff ff ff 	mov    WORD PTR [rbp-0x100],0x2
  10b9da:	02 00 
  10b9dc:	48 89 8d 08 ff ff ff 	mov    QWORD PTR [rbp-0xf8],rcx
  10b9e3:	48 c7 85 10 ff ff ff 	mov    QWORD PTR [rbp-0xf0],0x3
  10b9ea:	03 00 00 00 
  10b9ee:	48 8d 85 00 ff ff ff 	lea    rax,[rbp-0x100]
  10b9f5:	4c 89 6d b0          	mov    QWORD PTR [rbp-0x50],r13
  10b9f9:	4c 89 65 b8          	mov    QWORD PTR [rbp-0x48],r12
  10b9fd:	48 89 45 c0          	mov    QWORD PTR [rbp-0x40],rax
  10ba01:	48 89 55 c8          	mov    QWORD PTR [rbp-0x38],rdx
  10ba05:	48 8d 75 b0          	lea    rsi,[rbp-0x50]
  10ba09:	e8 02 64 00 00       	call   111e10 <_RNvMsa_NtCs9TWaYOb1t6o_4core3fmtNtB5_9Formatter19pad_formatted_parts>
  10ba0e:	48 81 c4 e8 04 00 00 	add    rsp,0x4e8
  10ba15:	5b                   	pop    rbx
  10ba16:	41 5c                	pop    r12
  10ba18:	41 5d                	pop    r13
  10ba1a:	41 5e                	pop    r14
  10ba1c:	41 5f                	pop    r15
  10ba1e:	5d                   	pop    rbp
  10ba1f:	c3                   	ret
  10ba20:	48 8d 3d b7 70 ff ff 	lea    rdi,[rip+0xffffffffffff70b7]        # 102ade <_RNvNtNtNtCs9TWaYOb1t6o_4core7unicode12unicode_data9uppercase17BITSET_CHUNKS_MAP+0x307>
  10ba27:	48 8d 15 5a 00 02 00 	lea    rdx,[rip+0x2005a]        # 12ba88 <_RNvNtCslB4Q0PG65QT_6hlq_os10vga_writer9GL_VGA_WT+0x140>
  10ba2e:	be 29 00 00 00       	mov    esi,0x29
  10ba33:	ff 15 a7 fc 01 00    	call   QWORD PTR [rip+0x1fca7]        # 12b6e0 <_RNvNtCsditBB9aEfcw_17compiler_builtins3mem7memmove+0xb0>

Disassembly of section .text._RINvNtNtCs9TWaYOb1t6o_4core3fmt5float36float_to_exponential_common_shortestC3f16EB6_:

000000000010ba40 <_RINvNtNtCs9TWaYOb1t6o_4core3fmt5float36float_to_exponential_common_shortestC3f16EB6_>:
  10ba40:	55                   	push   rbp
  10ba41:	48 89 e5             	mov    rbp,rsp
  10ba44:	41 57                	push   r15
  10ba46:	41 56                	push   r14
  10ba48:	41 54                	push   r12
  10ba4a:	53                   	push   rbx
  10ba4b:	48 81 ec 00 01 00 00 	sub    rsp,0x100
  10ba52:	89 cb                	mov    ebx,ecx
  10ba54:	0f b7 c6             	movzx  eax,si
  10ba57:	41 89 c1             	mov    r9d,eax
  10ba5a:	41 c1 e9 0a          	shr    r9d,0xa
  10ba5e:	8d 0c 36             	lea    ecx,[rsi+rsi*1]
  10ba61:	81 e1 fe 07 00 00    	and    ecx,0x7fe
  10ba67:	41 89 f2             	mov    r10d,esi
  10ba6a:	41 81 e2 ff 03 00 00 	and    r10d,0x3ff
  10ba71:	45 8d 82 00 04 00 00 	lea    r8d,[r10+0x400]
  10ba78:	66 41 83 e1 1f       	and    r9w,0x1f
  10ba7d:	44 0f 44 c1          	cmove  r8d,ecx
  10ba81:	44 89 c1             	mov    ecx,r8d
  10ba84:	83 e1 01             	and    ecx,0x1
  10ba87:	45 31 db             	xor    r11d,r11d
  10ba8a:	45 85 d2             	test   r10d,r10d
  10ba8d:	41 0f 94 c3          	sete   r11b
  10ba91:	81 e6 00 7c 00 00    	and    esi,0x7c00
  10ba97:	45 89 da             	mov    r10d,r11d
  10ba9a:	41 80 f2 03          	xor    r10b,0x3
  10ba9e:	85 f6                	test   esi,esi
  10baa0:	45 0f b6 d2          	movzx  r10d,r10b
  10baa4:	41 be 04 00 00 00    	mov    r14d,0x4
  10baaa:	45 0f 44 f2          	cmove  r14d,r10d
  10baae:	81 fe 00 7c 00 00    	cmp    esi,0x7c00
  10bab4:	45 0f 44 f3          	cmove  r14d,r11d
  10bab8:	41 0f b6 f6          	movzx  esi,r14b
  10babc:	4c 8d 15 91 55 ff ff 	lea    r10,[rip+0xffffffffffff5591]        # 101054 <gdt64.pointer+0x102c>
  10bac3:	49 63 34 b2          	movsxd rsi,DWORD PTR [r10+rsi*4]
  10bac7:	4c 01 d6             	add    rsi,r10
  10baca:	ff e6                	jmp    rsi
  10bacc:	b1 02                	mov    cl,0x2
  10bace:	eb 47                	jmp    10bb17 <_RINvNtNtCs9TWaYOb1t6o_4core3fmt5float36float_to_exponential_common_shortestC3f16EB6_+0xd7>
  10bad0:	43 8d 34 00          	lea    esi,[r8+r8*1]
  10bad4:	45 31 db             	xor    r11d,r11d
  10bad7:	49 81 f8 00 04 00 00 	cmp    r8,0x400
  10bade:	41 0f 94 c3          	sete   r11b
  10bae2:	41 b8 00 10 00 00    	mov    r8d,0x1000
  10bae8:	4c 0f 45 c6          	cmovne r8,rsi
  10baec:	4d 8d 53 01          	lea    r10,[r11+0x1]
  10baf0:	41 0f b7 f1          	movzx  esi,r9w
  10baf4:	44 29 de             	sub    esi,r11d
  10baf7:	83 c6 e6             	add    esi,0xffffffe6
  10bafa:	80 f1 01             	xor    cl,0x1
  10bafd:	eb 18                	jmp    10bb17 <_RINvNtNtCs9TWaYOb1t6o_4core3fmt5float36float_to_exponential_common_shortestC3f16EB6_+0xd7>
  10baff:	b1 04                	mov    cl,0x4
  10bb01:	eb 14                	jmp    10bb17 <_RINvNtNtCs9TWaYOb1t6o_4core3fmt5float36float_to_exponential_common_shortestC3f16EB6_+0xd7>
  10bb03:	41 0f b7 f1          	movzx  esi,r9w
  10bb07:	83 c6 e7             	add    esi,0xffffffe7
  10bb0a:	80 f1 01             	xor    cl,0x1
  10bb0d:	41 ba 01 00 00 00    	mov    r10d,0x1
  10bb13:	eb 02                	jmp    10bb17 <_RINvNtNtCs9TWaYOb1t6o_4core3fmt5float36float_to_exponential_common_shortestC3f16EB6_+0xd7>
  10bb15:	b1 03                	mov    cl,0x3
  10bb17:	4c 89 45 88          	mov    QWORD PTR [rbp-0x78],r8
  10bb1b:	48 c7 45 90 01 00 00 	mov    QWORD PTR [rbp-0x70],0x1
  10bb22:	00 
  10bb23:	4c 89 55 98          	mov    QWORD PTR [rbp-0x68],r10
  10bb27:	66 89 75 a0          	mov    WORD PTR [rbp-0x60],si
  10bb2b:	88 4d a2             	mov    BYTE PTR [rbp-0x5e],cl
  10bb2e:	80 f9 01             	cmp    cl,0x1
  10bb31:	76 6a                	jbe    10bb9d <_RINvNtNtCs9TWaYOb1t6o_4core3fmt5float36float_to_exponential_common_shortestC3f16EB6_+0x15d>
  10bb33:	80 c1 fe             	add    cl,0xfe
  10bb36:	0f 84 62 01 00 00    	je     10bc9e <_RINvNtNtCs9TWaYOb1t6o_4core3fmt5float36float_to_exponential_common_shortestC3f16EB6_+0x25e>
  10bb3c:	41 89 c6             	mov    r14d,eax
  10bb3f:	41 c1 ee 0f          	shr    r14d,0xf
  10bb43:	66 85 c0             	test   ax,ax
  10bb46:	4c 8d 3d 5a 6f ff ff 	lea    r15,[rip+0xffffffffffff6f5a]        # 102aa7 <_RNvNtNtNtCs9TWaYOb1t6o_4core7unicode12unicode_data9uppercase17BITSET_CHUNKS_MAP+0x2d0>
  10bb4d:	48 8d 35 54 6f ff ff 	lea    rsi,[rip+0xffffffffffff6f54]        # 102aa8 <_RNvNtNtNtCs9TWaYOb1t6o_4core7unicode12unicode_data9uppercase17BITSET_CHUNKS_MAP+0x2d1>
  10bb54:	49 0f 48 f7          	cmovs  rsi,r15
  10bb58:	b8 01 00 00 00       	mov    eax,0x1
  10bb5d:	4c 0f 49 f8          	cmovns r15,rax
  10bb61:	84 d2                	test   dl,dl
  10bb63:	4c 0f 45 f0          	cmovne r14,rax
  10bb67:	4c 0f 45 fe          	cmovne r15,rsi
  10bb6b:	80 f9 02             	cmp    cl,0x2
  10bb6e:	0f 85 0f 02 00 00    	jne    10bd83 <_RINvNtNtCs9TWaYOb1t6o_4core3fmt5float36float_to_exponential_common_shortestC3f16EB6_+0x343>
  10bb74:	48 8d 0d 5c 6f ff ff 	lea    rcx,[rip+0xffffffffffff6f5c]        # 102ad7 <_RNvNtNtNtCs9TWaYOb1t6o_4core7unicode12unicode_data9uppercase17BITSET_CHUNKS_MAP+0x300>
  10bb7b:	48 8d 15 52 6f ff ff 	lea    rdx,[rip+0xffffffffffff6f52]        # 102ad4 <_RNvNtNtNtCs9TWaYOb1t6o_4core7unicode12unicode_data9uppercase17BITSET_CHUNKS_MAP+0x2fd>
  10bb82:	84 db                	test   bl,bl
  10bb84:	48 0f 45 d1          	cmovne rdx,rcx
  10bb88:	66 c7 85 f8 fe ff ff 	mov    WORD PTR [rbp-0x108],0x2
  10bb8f:	02 00 
  10bb91:	48 89 95 00 ff ff ff 	mov    QWORD PTR [rbp-0x100],rdx
  10bb98:	e9 fd 01 00 00       	jmp    10bd9a <_RINvNtNtCs9TWaYOb1t6o_4core3fmt5float36float_to_exponential_common_shortestC3f16EB6_+0x35a>
  10bb9d:	49 89 fc             	mov    r12,rdi
  10bba0:	41 89 c6             	mov    r14d,eax
  10bba3:	41 c1 ee 0f          	shr    r14d,0xf
  10bba7:	66 85 c0             	test   ax,ax
  10bbaa:	4c 8d 3d f6 6e ff ff 	lea    r15,[rip+0xffffffffffff6ef6]        # 102aa7 <_RNvNtNtNtCs9TWaYOb1t6o_4core7unicode12unicode_data9uppercase17BITSET_CHUNKS_MAP+0x2d0>
  10bbb1:	48 8d 05 f0 6e ff ff 	lea    rax,[rip+0xffffffffffff6ef0]        # 102aa8 <_RNvNtNtNtCs9TWaYOb1t6o_4core7unicode12unicode_data9uppercase17BITSET_CHUNKS_MAP+0x2d1>
  10bbb8:	49 0f 48 c7          	cmovs  rax,r15
  10bbbc:	b9 01 00 00 00       	mov    ecx,0x1
  10bbc1:	4c 0f 49 f9          	cmovns r15,rcx
  10bbc5:	84 d2                	test   dl,dl
  10bbc7:	4c 0f 45 f1          	cmovne r14,rcx
  10bbcb:	4c 0f 45 f8          	cmovne r15,rax
  10bbcf:	48 8d 7d c0          	lea    rdi,[rbp-0x40]
  10bbd3:	48 8d 75 88          	lea    rsi,[rbp-0x78]
  10bbd7:	48 8d 95 e7 fe ff ff 	lea    rdx,[rbp-0x119]
  10bbde:	b9 11 00 00 00       	mov    ecx,0x11
  10bbe3:	ff 15 4f fc 01 00    	call   QWORD PTR [rip+0x1fc4f]        # 12b838 <_RNvNtCsditBB9aEfcw_17compiler_builtins3mem7memmove+0x208>
  10bbe9:	48 83 7d c0 00       	cmp    QWORD PTR [rbp-0x40],0x0
  10bbee:	0f 84 df 00 00 00    	je     10bcd3 <_RINvNtNtCs9TWaYOb1t6o_4core3fmt5float36float_to_exponential_common_shortestC3f16EB6_+0x293>
  10bbf4:	48 8b 45 d0          	mov    rax,QWORD PTR [rbp-0x30]
  10bbf8:	48 89 45 b8          	mov    QWORD PTR [rbp-0x48],rax
  10bbfc:	48 8b 45 c0          	mov    rax,QWORD PTR [rbp-0x40]
  10bc00:	48 8b 4d c8          	mov    rcx,QWORD PTR [rbp-0x38]
  10bc04:	48 89 4d b0          	mov    QWORD PTR [rbp-0x50],rcx
  10bc08:	48 89 45 a8          	mov    QWORD PTR [rbp-0x58],rax
  10bc0c:	48 8b 45 b0          	mov    rax,QWORD PTR [rbp-0x50]
  10bc10:	48 85 c0             	test   rax,rax
  10bc13:	0f 84 e1 00 00 00    	je     10bcfa <_RINvNtNtCs9TWaYOb1t6o_4core3fmt5float36float_to_exponential_common_shortestC3f16EB6_+0x2ba>
  10bc19:	48 8b 75 a8          	mov    rsi,QWORD PTR [rbp-0x58]
  10bc1d:	80 3e 30             	cmp    BYTE PTR [rsi],0x30
  10bc20:	0f 86 af 01 00 00    	jbe    10bdd5 <_RINvNtNtCs9TWaYOb1t6o_4core3fmt5float36float_to_exponential_common_shortestC3f16EB6_+0x395>
  10bc26:	4c 89 e7             	mov    rdi,r12
  10bc29:	0f b7 55 b8          	movzx  edx,WORD PTR [rbp-0x48]
  10bc2d:	66 c7 85 f8 fe ff ff 	mov    WORD PTR [rbp-0x108],0x2
  10bc34:	02 00 
  10bc36:	48 89 b5 00 ff ff ff 	mov    QWORD PTR [rbp-0x100],rsi
  10bc3d:	48 c7 85 08 ff ff ff 	mov    QWORD PTR [rbp-0xf8],0x1
  10bc44:	01 00 00 00 
  10bc48:	48 ff c8             	dec    rax
  10bc4b:	0f 84 c2 00 00 00    	je     10bd13 <_RINvNtNtCs9TWaYOb1t6o_4core3fmt5float36float_to_exponential_common_shortestC3f16EB6_+0x2d3>
  10bc51:	48 8d 8d 40 ff ff ff 	lea    rcx,[rbp-0xc0]
  10bc58:	66 c7 85 10 ff ff ff 	mov    WORD PTR [rbp-0xf0],0x2
  10bc5f:	02 00 
  10bc61:	4c 8d 05 db 76 ff ff 	lea    r8,[rip+0xffffffffffff76db]        # 103343 <_RNvNtNtNtCs9TWaYOb1t6o_4core7unicode12unicode_data9uppercase17BITSET_CHUNKS_MAP+0xb6c>
  10bc68:	4c 89 85 18 ff ff ff 	mov    QWORD PTR [rbp-0xe8],r8
  10bc6f:	48 c7 85 20 ff ff ff 	mov    QWORD PTR [rbp-0xe0],0x1
  10bc76:	01 00 00 00 
  10bc7a:	48 ff c6             	inc    rsi
  10bc7d:	66 c7 85 28 ff ff ff 	mov    WORD PTR [rbp-0xd8],0x2
  10bc84:	02 00 
  10bc86:	48 89 b5 30 ff ff ff 	mov    QWORD PTR [rbp-0xd0],rsi
  10bc8d:	48 89 85 38 ff ff ff 	mov    QWORD PTR [rbp-0xc8],rax
  10bc94:	b8 05 00 00 00       	mov    eax,0x5
  10bc99:	e9 81 00 00 00       	jmp    10bd1f <_RINvNtNtCs9TWaYOb1t6o_4core3fmt5float36float_to_exponential_common_shortestC3f16EB6_+0x2df>
  10bc9e:	66 c7 85 f8 fe ff ff 	mov    WORD PTR [rbp-0x108],0x2
  10bca5:	02 00 
  10bca7:	48 8d 05 fb 6d ff ff 	lea    rax,[rip+0xffffffffffff6dfb]        # 102aa9 <_RNvNtNtNtCs9TWaYOb1t6o_4core7unicode12unicode_data9uppercase17BITSET_CHUNKS_MAP+0x2d2>
  10bcae:	48 89 85 00 ff ff ff 	mov    QWORD PTR [rbp-0x100],rax
  10bcb5:	48 c7 85 08 ff ff ff 	mov    QWORD PTR [rbp-0xf8],0x3
  10bcbc:	03 00 00 00 
  10bcc0:	41 bf 01 00 00 00    	mov    r15d,0x1
  10bcc6:	45 31 f6             	xor    r14d,r14d
  10bcc9:	b8 01 00 00 00       	mov    eax,0x1
  10bcce:	e9 d2 00 00 00       	jmp    10bda5 <_RINvNtNtCs9TWaYOb1t6o_4core3fmt5float36float_to_exponential_common_shortestC3f16EB6_+0x365>
  10bcd3:	48 8d 7d a8          	lea    rdi,[rbp-0x58]
  10bcd7:	48 8d 75 88          	lea    rsi,[rbp-0x78]
  10bcdb:	48 8d 95 e7 fe ff ff 	lea    rdx,[rbp-0x119]
  10bce2:	b9 11 00 00 00       	mov    ecx,0x11
  10bce7:	ff 15 73 fa 01 00    	call   QWORD PTR [rip+0x1fa73]        # 12b760 <_RNvNtCsditBB9aEfcw_17compiler_builtins3mem7memmove+0x130>
  10bced:	48 8b 45 b0          	mov    rax,QWORD PTR [rbp-0x50]
  10bcf1:	48 85 c0             	test   rax,rax
  10bcf4:	0f 85 1f ff ff ff    	jne    10bc19 <_RINvNtNtCs9TWaYOb1t6o_4core3fmt5float36float_to_exponential_common_shortestC3f16EB6_+0x1d9>
  10bcfa:	48 8d 3d f9 7a ff ff 	lea    rdi,[rip+0xffffffffffff7af9]        # 1037fa <_RNvNtNtNtCs9TWaYOb1t6o_4core7unicode12unicode_data9uppercase17BITSET_CHUNKS_MAP+0x1023>
  10bd01:	48 8d 15 e0 02 02 00 	lea    rdx,[rip+0x202e0]        # 12bfe8 <_RNvNtCslB4Q0PG65QT_6hlq_os10vga_writer9GL_VGA_WT+0x6a0>
  10bd08:	be 21 00 00 00       	mov    esi,0x21
  10bd0d:	ff 15 cd f9 01 00    	call   QWORD PTR [rip+0x1f9cd]        # 12b6e0 <_RNvNtCsditBB9aEfcw_17compiler_builtins3mem7memmove+0xb0>
  10bd13:	48 8d 8d 10 ff ff ff 	lea    rcx,[rbp-0xf0]
  10bd1a:	b8 03 00 00 00       	mov    eax,0x3
  10bd1f:	48 8d 35 18 7b ff ff 	lea    rsi,[rip+0xffffffffffff7b18]        # 10383e <_RNvNtNtNtCs9TWaYOb1t6o_4core7unicode12unicode_data9uppercase17BITSET_CHUNKS_MAP+0x1067>
  10bd26:	4c 8d 05 0f 7b ff ff 	lea    r8,[rip+0xffffffffffff7b0f]        # 10383c <_RNvNtNtNtCs9TWaYOb1t6o_4core7unicode12unicode_data9uppercase17BITSET_CHUNKS_MAP+0x1065>
  10bd2d:	84 db                	test   bl,bl
  10bd2f:	4c 0f 45 c6          	cmovne r8,rsi
  10bd33:	48 8d 35 01 7b ff ff 	lea    rsi,[rip+0xffffffffffff7b01]        # 10383b <_RNvNtNtNtCs9TWaYOb1t6o_4core7unicode12unicode_data9uppercase17BITSET_CHUNKS_MAP+0x1064>
  10bd3a:	4c 8d 0d f9 7a ff ff 	lea    r9,[rip+0xffffffffffff7af9]        # 10383a <_RNvNtNtNtCs9TWaYOb1t6o_4core7unicode12unicode_data9uppercase17BITSET_CHUNKS_MAP+0x1063>
  10bd41:	4c 0f 45 ce          	cmovne r9,rsi
  10bd45:	31 f6                	xor    esi,esi
  10bd47:	66 85 d2             	test   dx,dx
  10bd4a:	40 0f 9e c6          	setle  sil
  10bd4e:	4d 0f 4e c8          	cmovle r9,r8
  10bd52:	48 ff c6             	inc    rsi
  10bd55:	0f bf d2             	movsx  edx,dx
  10bd58:	44 8d 42 ff          	lea    r8d,[rdx-0x1]
  10bd5c:	41 ba 01 00 00 00    	mov    r10d,0x1
  10bd62:	41 29 d2             	sub    r10d,edx
  10bd65:	45 0f 4c d0          	cmovl  r10d,r8d
  10bd69:	66 c7 01 02 00       	mov    WORD PTR [rcx],0x2
  10bd6e:	4c 89 49 08          	mov    QWORD PTR [rcx+0x8],r9
  10bd72:	48 89 71 10          	mov    QWORD PTR [rcx+0x10],rsi
  10bd76:	66 c7 41 18 01 00    	mov    WORD PTR [rcx+0x18],0x1
  10bd7c:	66 44 89 51 1a       	mov    WORD PTR [rcx+0x1a],r10w
  10bd81:	eb 22                	jmp    10bda5 <_RINvNtNtCs9TWaYOb1t6o_4core3fmt5float36float_to_exponential_common_shortestC3f16EB6_+0x365>
  10bd83:	66 c7 85 f8 fe ff ff 	mov    WORD PTR [rbp-0x108],0x2
  10bd8a:	02 00 
  10bd8c:	48 8d 0d 19 6d ff ff 	lea    rcx,[rip+0xffffffffffff6d19]        # 102aac <_RNvNtNtNtCs9TWaYOb1t6o_4core7unicode12unicode_data9uppercase17BITSET_CHUNKS_MAP+0x2d5>
  10bd93:	48 89 8d 00 ff ff ff 	mov    QWORD PTR [rbp-0x100],rcx
  10bd9a:	48 c7 85 08 ff ff ff 	mov    QWORD PTR [rbp-0xf8],0x3
  10bda1:	03 00 00 00 
  10bda5:	4c 89 7d c0          	mov    QWORD PTR [rbp-0x40],r15
  10bda9:	4c 89 75 c8          	mov    QWORD PTR [rbp-0x38],r14
  10bdad:	48 8d 8d f8 fe ff ff 	lea    rcx,[rbp-0x108]
  10bdb4:	48 89 4d d0          	mov    QWORD PTR [rbp-0x30],rcx
  10bdb8:	48 89 45 d8          	mov    QWORD PTR [rbp-0x28],rax
  10bdbc:	48 8d 75 c0          	lea    rsi,[rbp-0x40]
  10bdc0:	e8 4b 60 00 00       	call   111e10 <_RNvMsa_NtCs9TWaYOb1t6o_4core3fmtNtB5_9Formatter19pad_formatted_parts>
  10bdc5:	48 81 c4 00 01 00 00 	add    rsp,0x100
  10bdcc:	5b                   	pop    rbx
  10bdcd:	41 5c                	pop    r12
  10bdcf:	41 5e                	pop    r14
  10bdd1:	41 5f                	pop    r15
  10bdd3:	5d                   	pop    rbp
  10bdd4:	c3                   	ret
  10bdd5:	48 8d 3d 3f 7a ff ff 	lea    rdi,[rip+0xffffffffffff7a3f]        # 10381b <_RNvNtNtNtCs9TWaYOb1t6o_4core7unicode12unicode_data9uppercase17BITSET_CHUNKS_MAP+0x1044>
  10bddc:	48 8d 15 1d 02 02 00 	lea    rdx,[rip+0x2021d]        # 12c000 <_RNvNtCslB4Q0PG65QT_6hlq_os10vga_writer9GL_VGA_WT+0x6b8>
  10bde3:	be 1f 00 00 00       	mov    esi,0x1f
  10bde8:	ff 15 f2 f8 01 00    	call   QWORD PTR [rip+0x1f8f2]        # 12b6e0 <_RNvNtCsditBB9aEfcw_17compiler_builtins3mem7memmove+0xb0>

Disassembly of section .text._RINvNtNtCs9TWaYOb1t6o_4core3fmt5float36float_to_exponential_common_shortestdEB6_:

000000000010bdf0 <_RINvNtNtCs9TWaYOb1t6o_4core3fmt5float36float_to_exponential_common_shortestdEB6_>:
  10bdf0:	55                   	push   rbp
  10bdf1:	48 89 e5             	mov    rbp,rsp
  10bdf4:	41 57                	push   r15
  10bdf6:	41 56                	push   r14
  10bdf8:	41 54                	push   r12
  10bdfa:	53                   	push   rbx
  10bdfb:	48 81 ec 00 01 00 00 	sub    rsp,0x100
  10be02:	89 cb                	mov    ebx,ecx
  10be04:	49 b9 00 00 00 00 00 	movabs r9,0x10000000000000
  10be0b:	00 10 00 
  10be0e:	49 89 f0             	mov    r8,rsi
  10be11:	49 c1 e8 34          	shr    r8,0x34
  10be15:	48 8d 04 36          	lea    rax,[rsi+rsi*1]
  10be19:	49 ba fe ff ff ff ff 	movabs r10,0x1ffffffffffffe
  10be20:	ff 1f 00 
  10be23:	49 21 c2             	and    r10,rax
  10be26:	4d 8d 59 ff          	lea    r11,[r9-0x1]
  10be2a:	49 21 f3             	and    r11,rsi
  10be2d:	4b 8d 0c 0b          	lea    rcx,[r11+r9*1]
  10be31:	66 41 81 e0 ff 07    	and    r8w,0x7ff
  10be37:	49 0f 44 ca          	cmove  rcx,r10
  10be3b:	89 c8                	mov    eax,ecx
  10be3d:	83 e0 01             	and    eax,0x1
  10be40:	49 ba 00 00 00 00 00 	movabs r10,0x7ff0000000000000
  10be47:	00 f0 7f 
  10be4a:	49 89 f6             	mov    r14,rsi
  10be4d:	4d 21 d6             	and    r14,r10
  10be50:	45 31 ff             	xor    r15d,r15d
  10be53:	4d 85 db             	test   r11,r11
  10be56:	41 0f 94 c7          	sete   r15b
  10be5a:	45 89 fb             	mov    r11d,r15d
  10be5d:	41 80 f3 03          	xor    r11b,0x3
  10be61:	4d 85 f6             	test   r14,r14
  10be64:	45 0f b6 db          	movzx  r11d,r11b
  10be68:	41 bc 04 00 00 00    	mov    r12d,0x4
  10be6e:	45 0f 44 e3          	cmove  r12d,r11d
  10be72:	4d 39 d6             	cmp    r14,r10
  10be75:	45 0f 44 e7          	cmove  r12d,r15d
  10be79:	45 0f b6 d4          	movzx  r10d,r12b
  10be7d:	4c 8d 1d e4 51 ff ff 	lea    r11,[rip+0xffffffffffff51e4]        # 101068 <gdt64.pointer+0x1040>
  10be84:	4f 63 14 93          	movsxd r10,DWORD PTR [r11+r10*4]
  10be88:	4d 01 da             	add    r10,r11
  10be8b:	41 ff e2             	jmp    r10
  10be8e:	b0 02                	mov    al,0x2
  10be90:	eb 4d                	jmp    10bedf <_RINvNtNtCs9TWaYOb1t6o_4core3fmt5float36float_to_exponential_common_shortestdEB6_+0xef>
  10be92:	4c 8d 14 09          	lea    r10,[rcx+rcx*1]
  10be96:	45 31 db             	xor    r11d,r11d
  10be99:	4c 39 c9             	cmp    rcx,r9
  10be9c:	41 0f 94 c3          	sete   r11b
  10bea0:	48 b9 00 00 00 00 00 	movabs rcx,0x40000000000000
  10bea7:	00 40 00 
  10beaa:	49 0f 45 ca          	cmovne rcx,r10
  10beae:	4d 8d 4b 01          	lea    r9,[r11+0x1]
  10beb2:	45 0f b7 c0          	movzx  r8d,r8w
  10beb6:	45 29 d8             	sub    r8d,r11d
  10beb9:	41 81 c0 cc fb ff ff 	add    r8d,0xfffffbcc
  10bec0:	34 01                	xor    al,0x1
  10bec2:	eb 1b                	jmp    10bedf <_RINvNtNtCs9TWaYOb1t6o_4core3fmt5float36float_to_exponential_common_shortestdEB6_+0xef>
  10bec4:	b0 04                	mov    al,0x4
  10bec6:	eb 17                	jmp    10bedf <_RINvNtNtCs9TWaYOb1t6o_4core3fmt5float36float_to_exponential_common_shortestdEB6_+0xef>
  10bec8:	45 0f b7 c0          	movzx  r8d,r8w
  10becc:	41 81 c0 cd fb ff ff 	add    r8d,0xfffffbcd
  10bed3:	34 01                	xor    al,0x1
  10bed5:	41 b9 01 00 00 00    	mov    r9d,0x1
  10bedb:	eb 02                	jmp    10bedf <_RINvNtNtCs9TWaYOb1t6o_4core3fmt5float36float_to_exponential_common_shortestdEB6_+0xef>
  10bedd:	b0 03                	mov    al,0x3
  10bedf:	48 89 4d 88          	mov    QWORD PTR [rbp-0x78],rcx
  10bee3:	48 c7 45 90 01 00 00 	mov    QWORD PTR [rbp-0x70],0x1
  10beea:	00 
  10beeb:	4c 89 4d 98          	mov    QWORD PTR [rbp-0x68],r9
  10beef:	66 44 89 45 a0       	mov    WORD PTR [rbp-0x60],r8w
  10bef4:	88 45 a2             	mov    BYTE PTR [rbp-0x5e],al
  10bef7:	3c 01                	cmp    al,0x1
  10bef9:	76 68                	jbe    10bf63 <_RINvNtNtCs9TWaYOb1t6o_4core3fmt5float36float_to_exponential_common_shortestdEB6_+0x173>
  10befb:	04 fe                	add    al,0xfe
  10befd:	0f 84 61 01 00 00    	je     10c064 <_RINvNtNtCs9TWaYOb1t6o_4core3fmt5float36float_to_exponential_common_shortestdEB6_+0x274>
  10bf03:	49 89 f6             	mov    r14,rsi
  10bf06:	49 c1 ee 3f          	shr    r14,0x3f
  10bf0a:	48 85 f6             	test   rsi,rsi
  10bf0d:	4c 8d 3d 93 6b ff ff 	lea    r15,[rip+0xffffffffffff6b93]        # 102aa7 <_RNvNtNtNtCs9TWaYOb1t6o_4core7unicode12unicode_data9uppercase17BITSET_CHUNKS_MAP+0x2d0>
  10bf14:	48 8d 35 8d 6b ff ff 	lea    rsi,[rip+0xffffffffffff6b8d]        # 102aa8 <_RNvNtNtNtCs9TWaYOb1t6o_4core7unicode12unicode_data9uppercase17BITSET_CHUNKS_MAP+0x2d1>
  10bf1b:	49 0f 48 f7          	cmovs  rsi,r15
  10bf1f:	b9 01 00 00 00       	mov    ecx,0x1
  10bf24:	4c 0f 49 f9          	cmovns r15,rcx
  10bf28:	84 d2                	test   dl,dl
  10bf2a:	4c 0f 45 f1          	cmovne r14,rcx
  10bf2e:	4c 0f 45 fe          	cmovne r15,rsi
  10bf32:	3c 02                	cmp    al,0x2
  10bf34:	0f 85 0f 02 00 00    	jne    10c149 <_RINvNtNtCs9TWaYOb1t6o_4core3fmt5float36float_to_exponential_common_shortestdEB6_+0x359>
  10bf3a:	48 8d 05 96 6b ff ff 	lea    rax,[rip+0xffffffffffff6b96]        # 102ad7 <_RNvNtNtNtCs9TWaYOb1t6o_4core7unicode12unicode_data9uppercase17BITSET_CHUNKS_MAP+0x300>
  10bf41:	48 8d 15 8c 6b ff ff 	lea    rdx,[rip+0xffffffffffff6b8c]        # 102ad4 <_RNvNtNtNtCs9TWaYOb1t6o_4core7unicode12unicode_data9uppercase17BITSET_CHUNKS_MAP+0x2fd>
  10bf48:	84 db                	test   bl,bl
  10bf4a:	48 0f 45 d0          	cmovne rdx,rax
  10bf4e:	66 c7 85 f8 fe ff ff 	mov    WORD PTR [rbp-0x108],0x2
  10bf55:	02 00 
  10bf57:	48 89 95 00 ff ff ff 	mov    QWORD PTR [rbp-0x100],rdx
  10bf5e:	e9 fd 01 00 00       	jmp    10c160 <_RINvNtNtCs9TWaYOb1t6o_4core3fmt5float36float_to_exponential_common_shortestdEB6_+0x370>
  10bf63:	49 89 fc             	mov    r12,rdi
  10bf66:	49 89 f6             	mov    r14,rsi
  10bf69:	49 c1 ee 3f          	shr    r14,0x3f
  10bf6d:	48 85 f6             	test   rsi,rsi
  10bf70:	4c 8d 3d 30 6b ff ff 	lea    r15,[rip+0xffffffffffff6b30]        # 102aa7 <_RNvNtNtNtCs9TWaYOb1t6o_4core7unicode12unicode_data9uppercase17BITSET_CHUNKS_MAP+0x2d0>
  10bf77:	48 8d 05 2a 6b ff ff 	lea    rax,[rip+0xffffffffffff6b2a]        # 102aa8 <_RNvNtNtNtCs9TWaYOb1t6o_4core7unicode12unicode_data9uppercase17BITSET_CHUNKS_MAP+0x2d1>
  10bf7e:	49 0f 48 c7          	cmovs  rax,r15
  10bf82:	b9 01 00 00 00       	mov    ecx,0x1
  10bf87:	4c 0f 49 f9          	cmovns r15,rcx
  10bf8b:	84 d2                	test   dl,dl
  10bf8d:	4c 0f 45 f1          	cmovne r14,rcx
  10bf91:	4c 0f 45 f8          	cmovne r15,rax
  10bf95:	48 8d 7d c0          	lea    rdi,[rbp-0x40]
  10bf99:	48 8d 75 88          	lea    rsi,[rbp-0x78]
  10bf9d:	48 8d 95 e7 fe ff ff 	lea    rdx,[rbp-0x119]
  10bfa4:	b9 11 00 00 00       	mov    ecx,0x11
  10bfa9:	ff 15 89 f8 01 00    	call   QWORD PTR [rip+0x1f889]        # 12b838 <_RNvNtCsditBB9aEfcw_17compiler_builtins3mem7memmove+0x208>
  10bfaf:	48 83 7d c0 00       	cmp    QWORD PTR [rbp-0x40],0x0
  10bfb4:	0f 84 df 00 00 00    	je     10c099 <_RINvNtNtCs9TWaYOb1t6o_4core3fmt5float36float_to_exponential_common_shortestdEB6_+0x2a9>
  10bfba:	48 8b 45 d0          	mov    rax,QWORD PTR [rbp-0x30]
  10bfbe:	48 89 45 b8          	mov    QWORD PTR [rbp-0x48],rax
  10bfc2:	48 8b 45 c0          	mov    rax,QWORD PTR [rbp-0x40]
  10bfc6:	48 8b 4d c8          	mov    rcx,QWORD PTR [rbp-0x38]
  10bfca:	48 89 4d b0          	mov    QWORD PTR [rbp-0x50],rcx
  10bfce:	48 89 45 a8          	mov    QWORD PTR [rbp-0x58],rax
  10bfd2:	48 8b 4d b0          	mov    rcx,QWORD PTR [rbp-0x50]
  10bfd6:	48 85 c9             	test   rcx,rcx
  10bfd9:	0f 84 e1 00 00 00    	je     10c0c0 <_RINvNtNtCs9TWaYOb1t6o_4core3fmt5float36float_to_exponential_common_shortestdEB6_+0x2d0>
  10bfdf:	48 8b 75 a8          	mov    rsi,QWORD PTR [rbp-0x58]
  10bfe3:	80 3e 30             	cmp    BYTE PTR [rsi],0x30
  10bfe6:	0f 86 af 01 00 00    	jbe    10c19b <_RINvNtNtCs9TWaYOb1t6o_4core3fmt5float36float_to_exponential_common_shortestdEB6_+0x3ab>
  10bfec:	4c 89 e7             	mov    rdi,r12
  10bfef:	0f b7 55 b8          	movzx  edx,WORD PTR [rbp-0x48]
  10bff3:	66 c7 85 f8 fe ff ff 	mov    WORD PTR [rbp-0x108],0x2
  10bffa:	02 00 
  10bffc:	48 89 b5 00 ff ff ff 	mov    QWORD PTR [rbp-0x100],rsi
  10c003:	48 c7 85 08 ff ff ff 	mov    QWORD PTR [rbp-0xf8],0x1
  10c00a:	01 00 00 00 
  10c00e:	48 ff c9             	dec    rcx
  10c011:	0f 84 c2 00 00 00    	je     10c0d9 <_RINvNtNtCs9TWaYOb1t6o_4core3fmt5float36float_to_exponential_common_shortestdEB6_+0x2e9>
  10c017:	48 8d 85 40 ff ff ff 	lea    rax,[rbp-0xc0]
  10c01e:	66 c7 85 10 ff ff ff 	mov    WORD PTR [rbp-0xf0],0x2
  10c025:	02 00 
  10c027:	4c 8d 05 15 73 ff ff 	lea    r8,[rip+0xffffffffffff7315]        # 103343 <_RNvNtNtNtCs9TWaYOb1t6o_4core7unicode12unicode_data9uppercase17BITSET_CHUNKS_MAP+0xb6c>
  10c02e:	4c 89 85 18 ff ff ff 	mov    QWORD PTR [rbp-0xe8],r8
  10c035:	48 c7 85 20 ff ff ff 	mov    QWORD PTR [rbp-0xe0],0x1
  10c03c:	01 00 00 00 
  10c040:	48 ff c6             	inc    rsi
  10c043:	66 c7 85 28 ff ff ff 	mov    WORD PTR [rbp-0xd8],0x2
  10c04a:	02 00 
  10c04c:	48 89 b5 30 ff ff ff 	mov    QWORD PTR [rbp-0xd0],rsi
  10c053:	48 89 8d 38 ff ff ff 	mov    QWORD PTR [rbp-0xc8],rcx
  10c05a:	b9 05 00 00 00       	mov    ecx,0x5
  10c05f:	e9 81 00 00 00       	jmp    10c0e5 <_RINvNtNtCs9TWaYOb1t6o_4core3fmt5float36float_to_exponential_common_shortestdEB6_+0x2f5>
  10c064:	66 c7 85 f8 fe ff ff 	mov    WORD PTR [rbp-0x108],0x2
  10c06b:	02 00 
  10c06d:	48 8d 05 35 6a ff ff 	lea    rax,[rip+0xffffffffffff6a35]        # 102aa9 <_RNvNtNtNtCs9TWaYOb1t6o_4core7unicode12unicode_data9uppercase17BITSET_CHUNKS_MAP+0x2d2>
  10c074:	48 89 85 00 ff ff ff 	mov    QWORD PTR [rbp-0x100],rax
  10c07b:	48 c7 85 08 ff ff ff 	mov    QWORD PTR [rbp-0xf8],0x3
  10c082:	03 00 00 00 
  10c086:	41 bf 01 00 00 00    	mov    r15d,0x1
  10c08c:	45 31 f6             	xor    r14d,r14d
  10c08f:	b9 01 00 00 00       	mov    ecx,0x1
  10c094:	e9 d2 00 00 00       	jmp    10c16b <_RINvNtNtCs9TWaYOb1t6o_4core3fmt5float36float_to_exponential_common_shortestdEB6_+0x37b>
  10c099:	48 8d 7d a8          	lea    rdi,[rbp-0x58]
  10c09d:	48 8d 75 88          	lea    rsi,[rbp-0x78]
  10c0a1:	48 8d 95 e7 fe ff ff 	lea    rdx,[rbp-0x119]
  10c0a8:	b9 11 00 00 00       	mov    ecx,0x11
  10c0ad:	ff 15 ad f6 01 00    	call   QWORD PTR [rip+0x1f6ad]        # 12b760 <_RNvNtCsditBB9aEfcw_17compiler_builtins3mem7memmove+0x130>
  10c0b3:	48 8b 4d b0          	mov    rcx,QWORD PTR [rbp-0x50]
  10c0b7:	48 85 c9             	test   rcx,rcx
  10c0ba:	0f 85 1f ff ff ff    	jne    10bfdf <_RINvNtNtCs9TWaYOb1t6o_4core3fmt5float36float_to_exponential_common_shortestdEB6_+0x1ef>
  10c0c0:	48 8d 3d 33 77 ff ff 	lea    rdi,[rip+0xffffffffffff7733]        # 1037fa <_RNvNtNtNtCs9TWaYOb1t6o_4core7unicode12unicode_data9uppercase17BITSET_CHUNKS_MAP+0x1023>
  10c0c7:	48 8d 15 1a ff 01 00 	lea    rdx,[rip+0x1ff1a]        # 12bfe8 <_RNvNtCslB4Q0PG65QT_6hlq_os10vga_writer9GL_VGA_WT+0x6a0>
  10c0ce:	be 21 00 00 00       	mov    esi,0x21
  10c0d3:	ff 15 07 f6 01 00    	call   QWORD PTR [rip+0x1f607]        # 12b6e0 <_RNvNtCsditBB9aEfcw_17compiler_builtins3mem7memmove+0xb0>
  10c0d9:	48 8d 85 10 ff ff ff 	lea    rax,[rbp-0xf0]
  10c0e0:	b9 03 00 00 00       	mov    ecx,0x3
  10c0e5:	48 8d 35 52 77 ff ff 	lea    rsi,[rip+0xffffffffffff7752]        # 10383e <_RNvNtNtNtCs9TWaYOb1t6o_4core7unicode12unicode_data9uppercase17BITSET_CHUNKS_MAP+0x1067>
  10c0ec:	4c 8d 05 49 77 ff ff 	lea    r8,[rip+0xffffffffffff7749]        # 10383c <_RNvNtNtNtCs9TWaYOb1t6o_4core7unicode12unicode_data9uppercase17BITSET_CHUNKS_MAP+0x1065>
  10c0f3:	84 db                	test   bl,bl
  10c0f5:	4c 0f 45 c6          	cmovne r8,rsi
  10c0f9:	48 8d 35 3b 77 ff ff 	lea    rsi,[rip+0xffffffffffff773b]        # 10383b <_RNvNtNtNtCs9TWaYOb1t6o_4core7unicode12unicode_data9uppercase17BITSET_CHUNKS_MAP+0x1064>
  10c100:	4c 8d 0d 33 77 ff ff 	lea    r9,[rip+0xffffffffffff7733]        # 10383a <_RNvNtNtNtCs9TWaYOb1t6o_4core7unicode12unicode_data9uppercase17BITSET_CHUNKS_MAP+0x1063>
  10c107:	4c 0f 45 ce          	cmovne r9,rsi
  10c10b:	31 f6                	xor    esi,esi
  10c10d:	66 85 d2             	test   dx,dx
  10c110:	40 0f 9e c6          	setle  sil
  10c114:	4d 0f 4e c8          	cmovle r9,r8
  10c118:	48 ff c6             	inc    rsi
  10c11b:	0f bf d2             	movsx  edx,dx
  10c11e:	44 8d 42 ff          	lea    r8d,[rdx-0x1]
  10c122:	41 ba 01 00 00 00    	mov    r10d,0x1
  10c128:	41 29 d2             	sub    r10d,edx
  10c12b:	45 0f 4c d0          	cmovl  r10d,r8d
  10c12f:	66 c7 00 02 00       	mov    WORD PTR [rax],0x2
  10c134:	4c 89 48 08          	mov    QWORD PTR [rax+0x8],r9
  10c138:	48 89 70 10          	mov    QWORD PTR [rax+0x10],rsi
  10c13c:	66 c7 40 18 01 00    	mov    WORD PTR [rax+0x18],0x1
  10c142:	66 44 89 50 1a       	mov    WORD PTR [rax+0x1a],r10w
  10c147:	eb 22                	jmp    10c16b <_RINvNtNtCs9TWaYOb1t6o_4core3fmt5float36float_to_exponential_common_shortestdEB6_+0x37b>
  10c149:	66 c7 85 f8 fe ff ff 	mov    WORD PTR [rbp-0x108],0x2
  10c150:	02 00 
  10c152:	48 8d 05 53 69 ff ff 	lea    rax,[rip+0xffffffffffff6953]        # 102aac <_RNvNtNtNtCs9TWaYOb1t6o_4core7unicode12unicode_data9uppercase17BITSET_CHUNKS_MAP+0x2d5>
  10c159:	48 89 85 00 ff ff ff 	mov    QWORD PTR [rbp-0x100],rax
  10c160:	48 c7 85 08 ff ff ff 	mov    QWORD PTR [rbp-0xf8],0x3
  10c167:	03 00 00 00 
  10c16b:	4c 89 7d c0          	mov    QWORD PTR [rbp-0x40],r15
  10c16f:	4c 89 75 c8          	mov    QWORD PTR [rbp-0x38],r14
  10c173:	48 8d 85 f8 fe ff ff 	lea    rax,[rbp-0x108]
  10c17a:	48 89 45 d0          	mov    QWORD PTR [rbp-0x30],rax
  10c17e:	48 89 4d d8          	mov    QWORD PTR [rbp-0x28],rcx
  10c182:	48 8d 75 c0          	lea    rsi,[rbp-0x40]
  10c186:	e8 85 5c 00 00       	call   111e10 <_RNvMsa_NtCs9TWaYOb1t6o_4core3fmtNtB5_9Formatter19pad_formatted_parts>
  10c18b:	48 81 c4 00 01 00 00 	add    rsp,0x100
  10c192:	5b                   	pop    rbx
  10c193:	41 5c                	pop    r12
  10c195:	41 5e                	pop    r14
  10c197:	41 5f                	pop    r15
  10c199:	5d                   	pop    rbp
  10c19a:	c3                   	ret
  10c19b:	48 8d 3d 79 76 ff ff 	lea    rdi,[rip+0xffffffffffff7679]        # 10381b <_RNvNtNtNtCs9TWaYOb1t6o_4core7unicode12unicode_data9uppercase17BITSET_CHUNKS_MAP+0x1044>
  10c1a2:	48 8d 15 57 fe 01 00 	lea    rdx,[rip+0x1fe57]        # 12c000 <_RNvNtCslB4Q0PG65QT_6hlq_os10vga_writer9GL_VGA_WT+0x6b8>
  10c1a9:	be 1f 00 00 00       	mov    esi,0x1f
  10c1ae:	ff 15 2c f5 01 00    	call   QWORD PTR [rip+0x1f52c]        # 12b6e0 <_RNvNtCsditBB9aEfcw_17compiler_builtins3mem7memmove+0xb0>

Disassembly of section .text._RINvNtNtCs9TWaYOb1t6o_4core3fmt5float36float_to_exponential_common_shortestfEB6_:

000000000010c1c0 <_RINvNtNtCs9TWaYOb1t6o_4core3fmt5float36float_to_exponential_common_shortestfEB6_>:
  10c1c0:	55                   	push   rbp
  10c1c1:	48 89 e5             	mov    rbp,rsp
  10c1c4:	41 57                	push   r15
  10c1c6:	41 56                	push   r14
  10c1c8:	41 54                	push   r12
  10c1ca:	53                   	push   rbx
  10c1cb:	48 81 ec 00 01 00 00 	sub    rsp,0x100
  10c1d2:	89 cb                	mov    ebx,ecx
  10c1d4:	41 89 f0             	mov    r8d,esi
  10c1d7:	41 c1 e8 17          	shr    r8d,0x17
  10c1db:	8d 04 36             	lea    eax,[rsi+rsi*1]
  10c1de:	25 fe ff ff 00       	and    eax,0xfffffe
  10c1e3:	41 89 f1             	mov    r9d,esi
  10c1e6:	41 81 e1 ff ff 7f 00 	and    r9d,0x7fffff
  10c1ed:	41 8d 89 00 00 80 00 	lea    ecx,[r9+0x800000]
  10c1f4:	66 41 81 e0 ff 00    	and    r8w,0xff
  10c1fa:	0f 44 c8             	cmove  ecx,eax
  10c1fd:	89 c8                	mov    eax,ecx
  10c1ff:	83 e0 01             	and    eax,0x1
  10c202:	41 89 f2             	mov    r10d,esi
  10c205:	41 81 e2 00 00 80 7f 	and    r10d,0x7f800000
  10c20c:	45 31 db             	xor    r11d,r11d
  10c20f:	45 85 c9             	test   r9d,r9d
  10c212:	41 0f 94 c3          	sete   r11b
  10c216:	45 89 d9             	mov    r9d,r11d
  10c219:	41 80 f1 03          	xor    r9b,0x3
  10c21d:	45 85 d2             	test   r10d,r10d
  10c220:	45 0f b6 c9          	movzx  r9d,r9b
  10c224:	41 be 04 00 00 00    	mov    r14d,0x4
  10c22a:	45 0f 44 f1          	cmove  r14d,r9d
  10c22e:	41 81 fa 00 00 80 7f 	cmp    r10d,0x7f800000
  10c235:	45 0f 44 f3          	cmove  r14d,r11d
  10c239:	45 0f b6 ce          	movzx  r9d,r14b
  10c23d:	4c 8d 15 38 4e ff ff 	lea    r10,[rip+0xffffffffffff4e38]        # 10107c <gdt64.pointer+0x1054>
  10c244:	4f 63 0c 8a          	movsxd r9,DWORD PTR [r10+r9*4]
  10c248:	4d 01 d1             	add    r9,r10
  10c24b:	41 ff e1             	jmp    r9
  10c24e:	b0 02                	mov    al,0x2
  10c250:	eb 4c                	jmp    10c29e <_RINvNtNtCs9TWaYOb1t6o_4core3fmt5float36float_to_exponential_common_shortestfEB6_+0xde>
  10c252:	44 8d 0c 09          	lea    r9d,[rcx+rcx*1]
  10c256:	45 31 d2             	xor    r10d,r10d
  10c259:	48 81 f9 00 00 80 00 	cmp    rcx,0x800000
  10c260:	41 0f 94 c2          	sete   r10b
  10c264:	b9 00 00 00 02       	mov    ecx,0x2000000
  10c269:	49 0f 45 c9          	cmovne rcx,r9
  10c26d:	4d 8d 4a 01          	lea    r9,[r10+0x1]
  10c271:	41 81 f2 69 ff ff ff 	xor    r10d,0xffffff69
  10c278:	45 0f b7 c0          	movzx  r8d,r8w
  10c27c:	45 01 d0             	add    r8d,r10d
  10c27f:	34 01                	xor    al,0x1
  10c281:	eb 1b                	jmp    10c29e <_RINvNtNtCs9TWaYOb1t6o_4core3fmt5float36float_to_exponential_common_shortestfEB6_+0xde>
  10c283:	b0 04                	mov    al,0x4
  10c285:	eb 17                	jmp    10c29e <_RINvNtNtCs9TWaYOb1t6o_4core3fmt5float36float_to_exponential_common_shortestfEB6_+0xde>
  10c287:	45 0f b7 c0          	movzx  r8d,r8w
  10c28b:	41 81 c0 6a ff ff ff 	add    r8d,0xffffff6a
  10c292:	34 01                	xor    al,0x1
  10c294:	41 b9 01 00 00 00    	mov    r9d,0x1
  10c29a:	eb 02                	jmp    10c29e <_RINvNtNtCs9TWaYOb1t6o_4core3fmt5float36float_to_exponential_common_shortestfEB6_+0xde>
  10c29c:	b0 03                	mov    al,0x3
  10c29e:	48 89 4d 88          	mov    QWORD PTR [rbp-0x78],rcx
  10c2a2:	48 c7 45 90 01 00 00 	mov    QWORD PTR [rbp-0x70],0x1
  10c2a9:	00 
  10c2aa:	4c 89 4d 98          	mov    QWORD PTR [rbp-0x68],r9
  10c2ae:	66 44 89 45 a0       	mov    WORD PTR [rbp-0x60],r8w
  10c2b3:	88 45 a2             	mov    BYTE PTR [rbp-0x5e],al
  10c2b6:	3c 01                	cmp    al,0x1
  10c2b8:	76 67                	jbe    10c321 <_RINvNtNtCs9TWaYOb1t6o_4core3fmt5float36float_to_exponential_common_shortestfEB6_+0x161>
  10c2ba:	04 fe                	add    al,0xfe
  10c2bc:	0f 84 5f 01 00 00    	je     10c421 <_RINvNtNtCs9TWaYOb1t6o_4core3fmt5float36float_to_exponential_common_shortestfEB6_+0x261>
  10c2c2:	41 89 f6             	mov    r14d,esi
  10c2c5:	41 c1 ee 1f          	shr    r14d,0x1f
  10c2c9:	85 f6                	test   esi,esi
  10c2cb:	4c 8d 3d d5 67 ff ff 	lea    r15,[rip+0xffffffffffff67d5]        # 102aa7 <_RNvNtNtNtCs9TWaYOb1t6o_4core7unicode12unicode_data9uppercase17BITSET_CHUNKS_MAP+0x2d0>
  10c2d2:	48 8d 35 cf 67 ff ff 	lea    rsi,[rip+0xffffffffffff67cf]        # 102aa8 <_RNvNtNtNtCs9TWaYOb1t6o_4core7unicode12unicode_data9uppercase17BITSET_CHUNKS_MAP+0x2d1>
  10c2d9:	49 0f 48 f7          	cmovs  rsi,r15
  10c2dd:	b9 01 00 00 00       	mov    ecx,0x1
  10c2e2:	4c 0f 49 f9          	cmovns r15,rcx
  10c2e6:	84 d2                	test   dl,dl
  10c2e8:	4c 0f 45 f1          	cmovne r14,rcx
  10c2ec:	4c 0f 45 fe          	cmovne r15,rsi
  10c2f0:	3c 02                	cmp    al,0x2
  10c2f2:	0f 85 0e 02 00 00    	jne    10c506 <_RINvNtNtCs9TWaYOb1t6o_4core3fmt5float36float_to_exponential_common_shortestfEB6_+0x346>
  10c2f8:	48 8d 05 d8 67 ff ff 	lea    rax,[rip+0xffffffffffff67d8]        # 102ad7 <_RNvNtNtNtCs9TWaYOb1t6o_4core7unicode12unicode_data9uppercase17BITSET_CHUNKS_MAP+0x300>
  10c2ff:	48 8d 15 ce 67 ff ff 	lea    rdx,[rip+0xffffffffffff67ce]        # 102ad4 <_RNvNtNtNtCs9TWaYOb1t6o_4core7unicode12unicode_data9uppercase17BITSET_CHUNKS_MAP+0x2fd>
  10c306:	84 db                	test   bl,bl
  10c308:	48 0f 45 d0          	cmovne rdx,rax
  10c30c:	66 c7 85 f8 fe ff ff 	mov    WORD PTR [rbp-0x108],0x2
  10c313:	02 00 
  10c315:	48 89 95 00 ff ff ff 	mov    QWORD PTR [rbp-0x100],rdx
  10c31c:	e9 fc 01 00 00       	jmp    10c51d <_RINvNtNtCs9TWaYOb1t6o_4core3fmt5float36float_to_exponential_common_shortestfEB6_+0x35d>
  10c321:	49 89 fc             	mov    r12,rdi
  10c324:	41 89 f6             	mov    r14d,esi
  10c327:	41 c1 ee 1f          	shr    r14d,0x1f
  10c32b:	85 f6                	test   esi,esi
  10c32d:	4c 8d 3d 73 67 ff ff 	lea    r15,[rip+0xffffffffffff6773]        # 102aa7 <_RNvNtNtNtCs9TWaYOb1t6o_4core7unicode12unicode_data9uppercase17BITSET_CHUNKS_MAP+0x2d0>
  10c334:	48 8d 05 6d 67 ff ff 	lea    rax,[rip+0xffffffffffff676d]        # 102aa8 <_RNvNtNtNtCs9TWaYOb1t6o_4core7unicode12unicode_data9uppercase17BITSET_CHUNKS_MAP+0x2d1>
  10c33b:	49 0f 48 c7          	cmovs  rax,r15
  10c33f:	b9 01 00 00 00       	mov    ecx,0x1
  10c344:	4c 0f 49 f9          	cmovns r15,rcx
  10c348:	84 d2                	test   dl,dl
  10c34a:	4c 0f 45 f1          	cmovne r14,rcx
  10c34e:	4c 0f 45 f8          	cmovne r15,rax
  10c352:	48 8d 7d c0          	lea    rdi,[rbp-0x40]
  10c356:	48 8d 75 88          	lea    rsi,[rbp-0x78]
  10c35a:	48 8d 95 e7 fe ff ff 	lea    rdx,[rbp-0x119]
  10c361:	b9 11 00 00 00       	mov    ecx,0x11
  10c366:	ff 15 cc f4 01 00    	call   QWORD PTR [rip+0x1f4cc]        # 12b838 <_RNvNtCsditBB9aEfcw_17compiler_builtins3mem7memmove+0x208>
  10c36c:	48 83 7d c0 00       	cmp    QWORD PTR [rbp-0x40],0x0
  10c371:	0f 84 df 00 00 00    	je     10c456 <_RINvNtNtCs9TWaYOb1t6o_4core3fmt5float36float_to_exponential_common_shortestfEB6_+0x296>
  10c377:	48 8b 45 d0          	mov    rax,QWORD PTR [rbp-0x30]
  10c37b:	48 89 45 b8          	mov    QWORD PTR [rbp-0x48],rax
  10c37f:	48 8b 45 c0          	mov    rax,QWORD PTR [rbp-0x40]
  10c383:	48 8b 4d c8          	mov    rcx,QWORD PTR [rbp-0x38]
  10c387:	48 89 4d b0          	mov    QWORD PTR [rbp-0x50],rcx
  10c38b:	48 89 45 a8          	mov    QWORD PTR [rbp-0x58],rax
  10c38f:	48 8b 4d b0          	mov    rcx,QWORD PTR [rbp-0x50]
  10c393:	48 85 c9             	test   rcx,rcx
  10c396:	0f 84 e1 00 00 00    	je     10c47d <_RINvNtNtCs9TWaYOb1t6o_4core3fmt5float36float_to_exponential_common_shortestfEB6_+0x2bd>
  10c39c:	48 8b 75 a8          	mov    rsi,QWORD PTR [rbp-0x58]
  10c3a0:	80 3e 30             	cmp    BYTE PTR [rsi],0x30
  10c3a3:	0f 86 af 01 00 00    	jbe    10c558 <_RINvNtNtCs9TWaYOb1t6o_4core3fmt5float36float_to_exponential_common_shortestfEB6_+0x398>
  10c3a9:	4c 89 e7             	mov    rdi,r12
  10c3ac:	0f b7 55 b8          	movzx  edx,WORD PTR [rbp-0x48]
  10c3b0:	66 c7 85 f8 fe ff ff 	mov    WORD PTR [rbp-0x108],0x2
  10c3b7:	02 00 
  10c3b9:	48 89 b5 00 ff ff ff 	mov    QWORD PTR [rbp-0x100],rsi
  10c3c0:	48 c7 85 08 ff ff ff 	mov    QWORD PTR [rbp-0xf8],0x1
  10c3c7:	01 00 00 00 
  10c3cb:	48 ff c9             	dec    rcx
  10c3ce:	0f 84 c2 00 00 00    	je     10c496 <_RINvNtNtCs9TWaYOb1t6o_4core3fmt5float36float_to_exponential_common_shortestfEB6_+0x2d6>
  10c3d4:	48 8d 85 40 ff ff ff 	lea    rax,[rbp-0xc0]
  10c3db:	66 c7 85 10 ff ff ff 	mov    WORD PTR [rbp-0xf0],0x2
  10c3e2:	02 00 
  10c3e4:	4c 8d 05 58 6f ff ff 	lea    r8,[rip+0xffffffffffff6f58]        # 103343 <_RNvNtNtNtCs9TWaYOb1t6o_4core7unicode12unicode_data9uppercase17BITSET_CHUNKS_MAP+0xb6c>
  10c3eb:	4c 89 85 18 ff ff ff 	mov    QWORD PTR [rbp-0xe8],r8
  10c3f2:	48 c7 85 20 ff ff ff 	mov    QWORD PTR [rbp-0xe0],0x1
  10c3f9:	01 00 00 00 
  10c3fd:	48 ff c6             	inc    rsi
  10c400:	66 c7 85 28 ff ff ff 	mov    WORD PTR [rbp-0xd8],0x2
  10c407:	02 00 
  10c409:	48 89 b5 30 ff ff ff 	mov    QWORD PTR [rbp-0xd0],rsi
  10c410:	48 89 8d 38 ff ff ff 	mov    QWORD PTR [rbp-0xc8],rcx
  10c417:	b9 05 00 00 00       	mov    ecx,0x5
  10c41c:	e9 81 00 00 00       	jmp    10c4a2 <_RINvNtNtCs9TWaYOb1t6o_4core3fmt5float36float_to_exponential_common_shortestfEB6_+0x2e2>
  10c421:	66 c7 85 f8 fe ff ff 	mov    WORD PTR [rbp-0x108],0x2
  10c428:	02 00 
  10c42a:	48 8d 05 78 66 ff ff 	lea    rax,[rip+0xffffffffffff6678]        # 102aa9 <_RNvNtNtNtCs9TWaYOb1t6o_4core7unicode12unicode_data9uppercase17BITSET_CHUNKS_MAP+0x2d2>
  10c431:	48 89 85 00 ff ff ff 	mov    QWORD PTR [rbp-0x100],rax
  10c438:	48 c7 85 08 ff ff ff 	mov    QWORD PTR [rbp-0xf8],0x3
  10c43f:	03 00 00 00 
  10c443:	41 bf 01 00 00 00    	mov    r15d,0x1
  10c449:	45 31 f6             	xor    r14d,r14d
  10c44c:	b9 01 00 00 00       	mov    ecx,0x1
  10c451:	e9 d2 00 00 00       	jmp    10c528 <_RINvNtNtCs9TWaYOb1t6o_4core3fmt5float36float_to_exponential_common_shortestfEB6_+0x368>
  10c456:	48 8d 7d a8          	lea    rdi,[rbp-0x58]
  10c45a:	48 8d 75 88          	lea    rsi,[rbp-0x78]
  10c45e:	48 8d 95 e7 fe ff ff 	lea    rdx,[rbp-0x119]
  10c465:	b9 11 00 00 00       	mov    ecx,0x11
  10c46a:	ff 15 f0 f2 01 00    	call   QWORD PTR [rip+0x1f2f0]        # 12b760 <_RNvNtCsditBB9aEfcw_17compiler_builtins3mem7memmove+0x130>
  10c470:	48 8b 4d b0          	mov    rcx,QWORD PTR [rbp-0x50]
  10c474:	48 85 c9             	test   rcx,rcx
  10c477:	0f 85 1f ff ff ff    	jne    10c39c <_RINvNtNtCs9TWaYOb1t6o_4core3fmt5float36float_to_exponential_common_shortestfEB6_+0x1dc>
  10c47d:	48 8d 3d 76 73 ff ff 	lea    rdi,[rip+0xffffffffffff7376]        # 1037fa <_RNvNtNtNtCs9TWaYOb1t6o_4core7unicode12unicode_data9uppercase17BITSET_CHUNKS_MAP+0x1023>
  10c484:	48 8d 15 5d fb 01 00 	lea    rdx,[rip+0x1fb5d]        # 12bfe8 <_RNvNtCslB4Q0PG65QT_6hlq_os10vga_writer9GL_VGA_WT+0x6a0>
  10c48b:	be 21 00 00 00       	mov    esi,0x21
  10c490:	ff 15 4a f2 01 00    	call   QWORD PTR [rip+0x1f24a]        # 12b6e0 <_RNvNtCsditBB9aEfcw_17compiler_builtins3mem7memmove+0xb0>
  10c496:	48 8d 85 10 ff ff ff 	lea    rax,[rbp-0xf0]
  10c49d:	b9 03 00 00 00       	mov    ecx,0x3
  10c4a2:	48 8d 35 95 73 ff ff 	lea    rsi,[rip+0xffffffffffff7395]        # 10383e <_RNvNtNtNtCs9TWaYOb1t6o_4core7unicode12unicode_data9uppercase17BITSET_CHUNKS_MAP+0x1067>
  10c4a9:	4c 8d 05 8c 73 ff ff 	lea    r8,[rip+0xffffffffffff738c]        # 10383c <_RNvNtNtNtCs9TWaYOb1t6o_4core7unicode12unicode_data9uppercase17BITSET_CHUNKS_MAP+0x1065>
  10c4b0:	84 db                	test   bl,bl
  10c4b2:	4c 0f 45 c6          	cmovne r8,rsi
  10c4b6:	48 8d 35 7e 73 ff ff 	lea    rsi,[rip+0xffffffffffff737e]        # 10383b <_RNvNtNtNtCs9TWaYOb1t6o_4core7unicode12unicode_data9uppercase17BITSET_CHUNKS_MAP+0x1064>
  10c4bd:	4c 8d 0d 76 73 ff ff 	lea    r9,[rip+0xffffffffffff7376]        # 10383a <_RNvNtNtNtCs9TWaYOb1t6o_4core7unicode12unicode_data9uppercase17BITSET_CHUNKS_MAP+0x1063>
  10c4c4:	4c 0f 45 ce          	cmovne r9,rsi
  10c4c8:	31 f6                	xor    esi,esi
  10c4ca:	66 85 d2             	test   dx,dx
  10c4cd:	40 0f 9e c6          	setle  sil
  10c4d1:	4d 0f 4e c8          	cmovle r9,r8
  10c4d5:	48 ff c6             	inc    rsi
  10c4d8:	0f bf d2             	movsx  edx,dx
  10c4db:	44 8d 42 ff          	lea    r8d,[rdx-0x1]
  10c4df:	41 ba 01 00 00 00    	mov    r10d,0x1
  10c4e5:	41 29 d2             	sub    r10d,edx
  10c4e8:	45 0f 4c d0          	cmovl  r10d,r8d
  10c4ec:	66 c7 00 02 00       	mov    WORD PTR [rax],0x2
  10c4f1:	4c 89 48 08          	mov    QWORD PTR [rax+0x8],r9
  10c4f5:	48 89 70 10          	mov    QWORD PTR [rax+0x10],rsi
  10c4f9:	66 c7 40 18 01 00    	mov    WORD PTR [rax+0x18],0x1
  10c4ff:	66 44 89 50 1a       	mov    WORD PTR [rax+0x1a],r10w
  10c504:	eb 22                	jmp    10c528 <_RINvNtNtCs9TWaYOb1t6o_4core3fmt5float36float_to_exponential_common_shortestfEB6_+0x368>
  10c506:	66 c7 85 f8 fe ff ff 	mov    WORD PTR [rbp-0x108],0x2
  10c50d:	02 00 
  10c50f:	48 8d 05 96 65 ff ff 	lea    rax,[rip+0xffffffffffff6596]        # 102aac <_RNvNtNtNtCs9TWaYOb1t6o_4core7unicode12unicode_data9uppercase17BITSET_CHUNKS_MAP+0x2d5>
  10c516:	48 89 85 00 ff ff ff 	mov    QWORD PTR [rbp-0x100],rax
  10c51d:	48 c7 85 08 ff ff ff 	mov    QWORD PTR [rbp-0xf8],0x3
  10c524:	03 00 00 00 
  10c528:	4c 89 7d c0          	mov    QWORD PTR [rbp-0x40],r15
  10c52c:	4c 89 75 c8          	mov    QWORD PTR [rbp-0x38],r14
  10c530:	48 8d 85 f8 fe ff ff 	lea    rax,[rbp-0x108]
  10c537:	48 89 45 d0          	mov    QWORD PTR [rbp-0x30],rax
  10c53b:	48 89 4d d8          	mov    QWORD PTR [rbp-0x28],rcx
  10c53f:	48 8d 75 c0          	lea    rsi,[rbp-0x40]
  10c543:	e8 c8 58 00 00       	call   111e10 <_RNvMsa_NtCs9TWaYOb1t6o_4core3fmtNtB5_9Formatter19pad_formatted_parts>
  10c548:	48 81 c4 00 01 00 00 	add    rsp,0x100
  10c54f:	5b                   	pop    rbx
  10c550:	41 5c                	pop    r12
  10c552:	41 5e                	pop    r14
  10c554:	41 5f                	pop    r15
  10c556:	5d                   	pop    rbp
  10c557:	c3                   	ret
  10c558:	48 8d 3d bc 72 ff ff 	lea    rdi,[rip+0xffffffffffff72bc]        # 10381b <_RNvNtNtNtCs9TWaYOb1t6o_4core7unicode12unicode_data9uppercase17BITSET_CHUNKS_MAP+0x1044>
  10c55f:	48 8d 15 9a fa 01 00 	lea    rdx,[rip+0x1fa9a]        # 12c000 <_RNvNtCslB4Q0PG65QT_6hlq_os10vga_writer9GL_VGA_WT+0x6b8>
  10c566:	be 1f 00 00 00       	mov    esi,0x1f
  10c56b:	ff 15 6f f1 01 00    	call   QWORD PTR [rip+0x1f16f]        # 12b6e0 <_RNvNtCsditBB9aEfcw_17compiler_builtins3mem7memmove+0xb0>

Disassembly of section .text._RINvNtNtNtNtCs9TWaYOb1t6o_4core3num3imp7dec2flt6lemire13compute_floatC3f16EBa_:

000000000010c580 <_RINvNtNtNtNtCs9TWaYOb1t6o_4core3num3imp7dec2flt6lemire13compute_floatC3f16EBa_>:
  10c580:	48 85 f6             	test   rsi,rsi
  10c583:	0f 94 c0             	sete   al
  10c586:	48 83 ff e5          	cmp    rdi,0xffffffffffffffe5
  10c58a:	0f 9c c1             	setl   cl
  10c58d:	08 c1                	or     cl,al
  10c58f:	74 05                	je     10c596 <_RINvNtNtNtNtCs9TWaYOb1t6o_4core3num3imp7dec2flt6lemire13compute_floatC3f16EBa_+0x16>
  10c591:	31 d2                	xor    edx,edx
  10c593:	31 c0                	xor    eax,eax
  10c595:	c3                   	ret
  10c596:	ba 1f 00 00 00       	mov    edx,0x1f
  10c59b:	48 83 ff 04          	cmp    rdi,0x4
  10c59f:	7e 03                	jle    10c5a4 <_RINvNtNtNtNtCs9TWaYOb1t6o_4core3num3imp7dec2flt6lemire13compute_floatC3f16EBa_+0x24>
  10c5a1:	31 c0                	xor    eax,eax
  10c5a3:	c3                   	ret
  10c5a4:	41 b9 7f 00 00 00    	mov    r9d,0x7f
  10c5aa:	4c 0f bd ce          	bsr    r9,rsi
  10c5ae:	49 83 f1 3f          	xor    r9,0x3f
  10c5b2:	44 89 c9             	mov    ecx,r9d
  10c5b5:	48 d3 e6             	shl    rsi,cl
  10c5b8:	49 89 fb             	mov    r11,rdi
  10c5bb:	49 c1 e3 04          	shl    r11,0x4
  10c5bf:	48 8d 0d b2 8f ff ff 	lea    rcx,[rip+0xffffffffffff8fb2]        # 105578 <_RNvNtNtNtNtCs9TWaYOb1t6o_4core3num3imp7dec2flt5table17POWER_OF_FIVE_128>
  10c5c6:	48 89 f0             	mov    rax,rsi
  10c5c9:	4a f7 a4 19 60 15 00 	mul    QWORD PTR [rcx+r11*1+0x1560]
  10c5d0:	00 
  10c5d1:	49 89 c2             	mov    r10,rax
  10c5d4:	49 89 d0             	mov    r8,rdx
  10c5d7:	48 89 d0             	mov    rax,rdx
  10c5da:	48 f7 d0             	not    rax
  10c5dd:	48 c1 e0 0d          	shl    rax,0xd
  10c5e1:	75 14                	jne    10c5f7 <_RINvNtNtNtNtCs9TWaYOb1t6o_4core3num3imp7dec2flt6lemire13compute_floatC3f16EBa_+0x77>
  10c5e3:	4c 01 d9             	add    rcx,r11
  10c5e6:	48 89 f0             	mov    rax,rsi
  10c5e9:	48 f7 a1 68 15 00 00 	mul    QWORD PTR [rcx+0x1568]
  10c5f0:	49 01 d2             	add    r10,rdx
  10c5f3:	49 83 d0 00          	adc    r8,0x0
  10c5f7:	4c 89 c2             	mov    rdx,r8
  10c5fa:	48 c1 ea 3f          	shr    rdx,0x3f
  10c5fe:	48 8d 4a 33          	lea    rcx,[rdx+0x33]
  10c602:	4c 89 c0             	mov    rax,r8
  10c605:	48 d3 e8             	shr    rax,cl
  10c608:	69 f7 6a 52 03 00    	imul   esi,edi,0x3526a
  10c60e:	c1 fe 10             	sar    esi,0x10
  10c611:	44 29 ce             	sub    esi,r9d
  10c614:	01 d6                	add    esi,edx
  10c616:	83 c6 3f             	add    esi,0x3f
  10c619:	83 fe f2             	cmp    esi,0xfffffff2
  10c61c:	ba 1f 00 00 00       	mov    edx,0x1f
  10c621:	7d 2f                	jge    10c652 <_RINvNtNtNtNtCs9TWaYOb1t6o_4core3num3imp7dec2flt6lemire13compute_floatC3f16EBa_+0xd2>
  10c623:	83 fe b3             	cmp    esi,0xffffffb3
  10c626:	0f 82 65 ff ff ff    	jb     10c591 <_RINvNtNtNtNtCs9TWaYOb1t6o_4core3num3imp7dec2flt6lemire13compute_floatC3f16EBa_+0x11>
  10c62c:	b9 f2 ff ff ff       	mov    ecx,0xfffffff2
  10c631:	29 f1                	sub    ecx,esi
  10c633:	48 89 c6             	mov    rsi,rax
  10c636:	48 d3 ee             	shr    rsi,cl
  10c639:	48 0f a3 c8          	bt     rax,rcx
  10c63d:	48 83 d6 00          	adc    rsi,0x0
  10c641:	89 f0                	mov    eax,esi
  10c643:	d1 e8                	shr    eax,1
  10c645:	31 d2                	xor    edx,edx
  10c647:	48 81 fe 00 08 00 00 	cmp    rsi,0x800
  10c64e:	0f 93 c2             	setae  dl
  10c651:	c3                   	ret
  10c652:	41 89 c1             	mov    r9d,eax
  10c655:	49 89 c3             	mov    r11,rax
  10c658:	49 d3 e3             	shl    r11,cl
  10c65b:	41 83 e1 03          	and    r9d,0x3
  10c65f:	49 83 f1 01          	xor    r9,0x1
  10c663:	4d 31 c3             	xor    r11,r8
  10c666:	41 89 c0             	mov    r8d,eax
  10c669:	41 81 e0 fc ff 00 00 	and    r8d,0xfffc
  10c670:	4d 09 cb             	or     r11,r9
  10c673:	4c 0f 45 c0          	cmovne r8,rax
  10c677:	49 83 fa 02          	cmp    r10,0x2
  10c67b:	4c 0f 43 c0          	cmovae r8,rax
  10c67f:	48 83 ff ea          	cmp    rdi,0xffffffffffffffea
  10c683:	4c 0f 4c c0          	cmovl  r8,rax
  10c687:	44 89 c1             	mov    ecx,r8d
  10c68a:	83 e1 01             	and    ecx,0x1
  10c68d:	4c 01 c1             	add    rcx,r8
  10c690:	48 81 f9 00 10 00 00 	cmp    rcx,0x1000
  10c697:	83 de ff             	sbb    esi,0xffffffff
  10c69a:	83 c6 0f             	add    esi,0xf
  10c69d:	83 fe 1e             	cmp    esi,0x1e
  10c6a0:	0f 87 fb fe ff ff    	ja     10c5a1 <_RINvNtNtNtNtCs9TWaYOb1t6o_4core3num3imp7dec2flt6lemire13compute_floatC3f16EBa_+0x21>
  10c6a6:	48 89 ca             	mov    rdx,rcx
  10c6a9:	48 d1 ea             	shr    rdx,1
  10c6ac:	48 81 e2 ff fb ff ff 	and    rdx,0xfffffffffffffbff
  10c6b3:	31 c0                	xor    eax,eax
  10c6b5:	48 81 f9 00 10 00 00 	cmp    rcx,0x1000
  10c6bc:	48 0f 42 c2          	cmovb  rax,rdx
  10c6c0:	89 f2                	mov    edx,esi
  10c6c2:	c3                   	ret

Disassembly of section .text._RINvNtNtNtNtCs9TWaYOb1t6o_4core3num3imp7dec2flt6lemire13compute_floatdEBa_:

000000000010c6d0 <_RINvNtNtNtNtCs9TWaYOb1t6o_4core3num3imp7dec2flt6lemire13compute_floatdEBa_>:
  10c6d0:	48 85 f6             	test   rsi,rsi
  10c6d3:	0f 94 c0             	sete   al
  10c6d6:	48 81 ff aa fe ff ff 	cmp    rdi,0xfffffffffffffeaa
  10c6dd:	0f 9c c1             	setl   cl
  10c6e0:	08 c1                	or     cl,al
  10c6e2:	74 05                	je     10c6e9 <_RINvNtNtNtNtCs9TWaYOb1t6o_4core3num3imp7dec2flt6lemire13compute_floatdEBa_+0x19>
  10c6e4:	31 d2                	xor    edx,edx
  10c6e6:	31 c0                	xor    eax,eax
  10c6e8:	c3                   	ret
  10c6e9:	ba ff 07 00 00       	mov    edx,0x7ff
  10c6ee:	48 81 ff 34 01 00 00 	cmp    rdi,0x134
  10c6f5:	7e 03                	jle    10c6fa <_RINvNtNtNtNtCs9TWaYOb1t6o_4core3num3imp7dec2flt6lemire13compute_floatdEBa_+0x2a>
  10c6f7:	31 c0                	xor    eax,eax
  10c6f9:	c3                   	ret
  10c6fa:	41 b9 7f 00 00 00    	mov    r9d,0x7f
  10c700:	4c 0f bd ce          	bsr    r9,rsi
  10c704:	49 83 f1 3f          	xor    r9,0x3f
  10c708:	44 89 c9             	mov    ecx,r9d
  10c70b:	48 d3 e6             	shl    rsi,cl
  10c70e:	49 89 fb             	mov    r11,rdi
  10c711:	49 c1 e3 04          	shl    r11,0x4
  10c715:	48 8d 0d 5c 8e ff ff 	lea    rcx,[rip+0xffffffffffff8e5c]        # 105578 <_RNvNtNtNtNtCs9TWaYOb1t6o_4core3num3imp7dec2flt5table17POWER_OF_FIVE_128>
  10c71c:	48 89 f0             	mov    rax,rsi
  10c71f:	4a f7 a4 19 60 15 00 	mul    QWORD PTR [rcx+r11*1+0x1560]
  10c726:	00 
  10c727:	49 89 c2             	mov    r10,rax
  10c72a:	49 89 d0             	mov    r8,rdx
  10c72d:	44 89 c0             	mov    eax,r8d
  10c730:	f7 d0                	not    eax
  10c732:	a9 ff 01 00 00       	test   eax,0x1ff
  10c737:	75 14                	jne    10c74d <_RINvNtNtNtNtCs9TWaYOb1t6o_4core3num3imp7dec2flt6lemire13compute_floatdEBa_+0x7d>
  10c739:	4c 01 d9             	add    rcx,r11
  10c73c:	48 89 f0             	mov    rax,rsi
  10c73f:	48 f7 a1 68 15 00 00 	mul    QWORD PTR [rcx+0x1568]
  10c746:	49 01 d2             	add    r10,rdx
  10c749:	49 83 d0 00          	adc    r8,0x0
  10c74d:	48 8d 47 1b          	lea    rax,[rdi+0x1b]
  10c751:	48 83 f8 53          	cmp    rax,0x53
  10c755:	ba ff 07 00 00       	mov    edx,0x7ff
  10c75a:	72 0e                	jb     10c76a <_RINvNtNtNtNtCs9TWaYOb1t6o_4core3num3imp7dec2flt6lemire13compute_floatdEBa_+0x9a>
  10c75c:	49 83 fa ff          	cmp    r10,0xffffffffffffffff
  10c760:	75 08                	jne    10c76a <_RINvNtNtNtNtCs9TWaYOb1t6o_4core3num3imp7dec2flt6lemire13compute_floatdEBa_+0x9a>
  10c762:	31 c0                	xor    eax,eax
  10c764:	ba ff ff ff ff       	mov    edx,0xffffffff
  10c769:	c3                   	ret
  10c76a:	4c 89 c6             	mov    rsi,r8
  10c76d:	48 c1 ee 3f          	shr    rsi,0x3f
  10c771:	48 8d 4e 09          	lea    rcx,[rsi+0x9]
  10c775:	4c 89 c0             	mov    rax,r8
  10c778:	48 d3 e8             	shr    rax,cl
  10c77b:	44 69 df 6a 52 03 00 	imul   r11d,edi,0x3526a
  10c782:	41 c1 fb 10          	sar    r11d,0x10
  10c786:	45 29 cb             	sub    r11d,r9d
  10c789:	44 01 de             	add    esi,r11d
  10c78c:	83 c6 3f             	add    esi,0x3f
  10c78f:	81 fe 02 fc ff ff    	cmp    esi,0xfffffc02
  10c795:	7d 32                	jge    10c7c9 <_RINvNtNtNtNtCs9TWaYOb1t6o_4core3num3imp7dec2flt6lemire13compute_floatdEBa_+0xf9>
  10c797:	81 fe c3 fb ff ff    	cmp    esi,0xfffffbc3
  10c79d:	0f 82 41 ff ff ff    	jb     10c6e4 <_RINvNtNtNtNtCs9TWaYOb1t6o_4core3num3imp7dec2flt6lemire13compute_floatdEBa_+0x14>
  10c7a3:	b1 02                	mov    cl,0x2
  10c7a5:	40 28 f1             	sub    cl,sil
  10c7a8:	48 89 c6             	mov    rsi,rax
  10c7ab:	48 d3 ee             	shr    rsi,cl
  10c7ae:	0f b6 c9             	movzx  ecx,cl
  10c7b1:	48 0f a3 c8          	bt     rax,rcx
  10c7b5:	48 83 d6 00          	adc    rsi,0x0
  10c7b9:	48 89 f0             	mov    rax,rsi
  10c7bc:	48 d1 e8             	shr    rax,1
  10c7bf:	31 d2                	xor    edx,edx
  10c7c1:	48 c1 ee 35          	shr    rsi,0x35
  10c7c5:	0f 95 c2             	setne  dl
  10c7c8:	c3                   	ret
  10c7c9:	48 83 c7 04          	add    rdi,0x4
  10c7cd:	41 89 c1             	mov    r9d,eax
  10c7d0:	49 89 c3             	mov    r11,rax
  10c7d3:	49 d3 e3             	shl    r11,cl
  10c7d6:	41 83 e1 03          	and    r9d,0x3
  10c7da:	49 83 f1 01          	xor    r9,0x1
  10c7de:	4d 31 c3             	xor    r11,r8
  10c7e1:	48 b9 fc ff ff ff ff 	movabs rcx,0xfffffffffffffc
  10c7e8:	ff ff 00 
  10c7eb:	48 21 c1             	and    rcx,rax
  10c7ee:	4d 09 cb             	or     r11,r9
  10c7f1:	48 0f 45 c8          	cmovne rcx,rax
  10c7f5:	49 83 fa 02          	cmp    r10,0x2
  10c7f9:	48 0f 43 c8          	cmovae rcx,rax
  10c7fd:	48 83 ff 1c          	cmp    rdi,0x1c
  10c801:	48 0f 43 c8          	cmovae rcx,rax
  10c805:	89 c8                	mov    eax,ecx
  10c807:	83 e0 01             	and    eax,0x1
  10c80a:	48 01 c8             	add    rax,rcx
  10c80d:	48 89 c1             	mov    rcx,rax
  10c810:	48 c1 e9 36          	shr    rcx,0x36
  10c814:	48 83 f9 01          	cmp    rcx,0x1
  10c818:	83 de ff             	sbb    esi,0xffffffff
  10c81b:	81 c6 ff 03 00 00    	add    esi,0x3ff
  10c821:	81 fe fe 07 00 00    	cmp    esi,0x7fe
  10c827:	0f 87 ca fe ff ff    	ja     10c6f7 <_RINvNtNtNtNtCs9TWaYOb1t6o_4core3num3imp7dec2flt6lemire13compute_floatdEBa_+0x27>
  10c82d:	48 d1 e8             	shr    rax,1
  10c830:	48 ba ff ff ff ff ff 	movabs rdx,0x7fefffffffffffff
  10c837:	ff ef 7f 
  10c83a:	48 21 c2             	and    rdx,rax
  10c83d:	31 c0                	xor    eax,eax
  10c83f:	48 85 c9             	test   rcx,rcx
  10c842:	48 0f 44 c2          	cmove  rax,rdx
  10c846:	89 f2                	mov    edx,esi
  10c848:	c3                   	ret

Disassembly of section .text._RINvNtNtNtNtCs9TWaYOb1t6o_4core3num3imp7dec2flt6lemire13compute_floatfEBa_:

000000000010c850 <_RINvNtNtNtNtCs9TWaYOb1t6o_4core3num3imp7dec2flt6lemire13compute_floatfEBa_>:
  10c850:	48 85 f6             	test   rsi,rsi
  10c853:	0f 94 c0             	sete   al
  10c856:	48 83 ff bf          	cmp    rdi,0xffffffffffffffbf
  10c85a:	0f 9c c1             	setl   cl
  10c85d:	08 c1                	or     cl,al
  10c85f:	74 05                	je     10c866 <_RINvNtNtNtNtCs9TWaYOb1t6o_4core3num3imp7dec2flt6lemire13compute_floatfEBa_+0x16>
  10c861:	31 d2                	xor    edx,edx
  10c863:	31 c0                	xor    eax,eax
  10c865:	c3                   	ret
  10c866:	ba ff 00 00 00       	mov    edx,0xff
  10c86b:	48 83 ff 26          	cmp    rdi,0x26
  10c86f:	7e 03                	jle    10c874 <_RINvNtNtNtNtCs9TWaYOb1t6o_4core3num3imp7dec2flt6lemire13compute_floatfEBa_+0x24>
  10c871:	31 c0                	xor    eax,eax
  10c873:	c3                   	ret
  10c874:	41 b9 7f 00 00 00    	mov    r9d,0x7f
  10c87a:	4c 0f bd ce          	bsr    r9,rsi
  10c87e:	49 83 f1 3f          	xor    r9,0x3f
  10c882:	44 89 c9             	mov    ecx,r9d
  10c885:	48 d3 e6             	shl    rsi,cl
  10c888:	49 89 fb             	mov    r11,rdi
  10c88b:	49 c1 e3 04          	shl    r11,0x4
  10c88f:	48 8d 0d e2 8c ff ff 	lea    rcx,[rip+0xffffffffffff8ce2]        # 105578 <_RNvNtNtNtNtCs9TWaYOb1t6o_4core3num3imp7dec2flt5table17POWER_OF_FIVE_128>
  10c896:	48 89 f0             	mov    rax,rsi
  10c899:	4a f7 a4 19 60 15 00 	mul    QWORD PTR [rcx+r11*1+0x1560]
  10c8a0:	00 
  10c8a1:	49 89 c2             	mov    r10,rax
  10c8a4:	49 89 d0             	mov    r8,rdx
  10c8a7:	48 89 d0             	mov    rax,rdx
  10c8aa:	48 f7 d0             	not    rax
  10c8ad:	48 c1 e0 1a          	shl    rax,0x1a
  10c8b1:	75 14                	jne    10c8c7 <_RINvNtNtNtNtCs9TWaYOb1t6o_4core3num3imp7dec2flt6lemire13compute_floatfEBa_+0x77>
  10c8b3:	4c 01 d9             	add    rcx,r11
  10c8b6:	48 89 f0             	mov    rax,rsi
  10c8b9:	48 f7 a1 68 15 00 00 	mul    QWORD PTR [rcx+0x1568]
  10c8c0:	49 01 d2             	add    r10,rdx
  10c8c3:	49 83 d0 00          	adc    r8,0x0
  10c8c7:	48 83 ff e4          	cmp    rdi,0xffffffffffffffe4
  10c8cb:	ba ff 00 00 00       	mov    edx,0xff
  10c8d0:	7f 0e                	jg     10c8e0 <_RINvNtNtNtNtCs9TWaYOb1t6o_4core3num3imp7dec2flt6lemire13compute_floatfEBa_+0x90>
  10c8d2:	49 83 fa ff          	cmp    r10,0xffffffffffffffff
  10c8d6:	75 08                	jne    10c8e0 <_RINvNtNtNtNtCs9TWaYOb1t6o_4core3num3imp7dec2flt6lemire13compute_floatfEBa_+0x90>
  10c8d8:	31 c0                	xor    eax,eax
  10c8da:	ba ff ff ff ff       	mov    edx,0xffffffff
  10c8df:	c3                   	ret
  10c8e0:	4c 89 c6             	mov    rsi,r8
  10c8e3:	48 c1 ee 3f          	shr    rsi,0x3f
  10c8e7:	48 8d 4e 26          	lea    rcx,[rsi+0x26]
  10c8eb:	4c 89 c0             	mov    rax,r8
  10c8ee:	48 d3 e8             	shr    rax,cl
  10c8f1:	44 69 df 6a 52 03 00 	imul   r11d,edi,0x3526a
  10c8f8:	41 c1 fb 10          	sar    r11d,0x10
  10c8fc:	45 29 cb             	sub    r11d,r9d
  10c8ff:	44 01 de             	add    esi,r11d
  10c902:	83 c6 3f             	add    esi,0x3f
  10c905:	83 fe 82             	cmp    esi,0xffffff82
  10c908:	7d 32                	jge    10c93c <_RINvNtNtNtNtCs9TWaYOb1t6o_4core3num3imp7dec2flt6lemire13compute_floatfEBa_+0xec>
  10c90a:	81 fe 43 ff ff ff    	cmp    esi,0xffffff43
  10c910:	0f 82 4b ff ff ff    	jb     10c861 <_RINvNtNtNtNtCs9TWaYOb1t6o_4core3num3imp7dec2flt6lemire13compute_floatfEBa_+0x11>
  10c916:	b9 82 ff ff ff       	mov    ecx,0xffffff82
  10c91b:	29 f1                	sub    ecx,esi
  10c91d:	48 89 c6             	mov    rsi,rax
  10c920:	48 d3 ee             	shr    rsi,cl
  10c923:	48 0f a3 c8          	bt     rax,rcx
  10c927:	48 83 d6 00          	adc    rsi,0x0
  10c92b:	89 f0                	mov    eax,esi
  10c92d:	d1 e8                	shr    eax,1
  10c92f:	31 d2                	xor    edx,edx
  10c931:	48 81 fe 00 00 00 01 	cmp    rsi,0x1000000
  10c938:	0f 93 c2             	setae  dl
  10c93b:	c3                   	ret
  10c93c:	48 83 c7 11          	add    rdi,0x11
  10c940:	41 89 c1             	mov    r9d,eax
  10c943:	49 89 c3             	mov    r11,rax
  10c946:	49 d3 e3             	shl    r11,cl
  10c949:	41 83 e1 03          	and    r9d,0x3
  10c94d:	49 83 f1 01          	xor    r9,0x1
  10c951:	4d 31 c3             	xor    r11,r8
  10c954:	41 89 c0             	mov    r8d,eax
  10c957:	41 81 e0 fc ff ff 03 	and    r8d,0x3fffffc
  10c95e:	4d 09 cb             	or     r11,r9
  10c961:	4c 0f 45 c0          	cmovne r8,rax
  10c965:	49 83 fa 02          	cmp    r10,0x2
  10c969:	4c 0f 43 c0          	cmovae r8,rax
  10c96d:	48 83 ff 1c          	cmp    rdi,0x1c
  10c971:	4c 0f 43 c0          	cmovae r8,rax
  10c975:	44 89 c1             	mov    ecx,r8d
  10c978:	83 e1 01             	and    ecx,0x1
  10c97b:	4c 01 c1             	add    rcx,r8
  10c97e:	48 81 f9 00 00 00 02 	cmp    rcx,0x2000000
  10c985:	83 de ff             	sbb    esi,0xffffffff
  10c988:	83 c6 7f             	add    esi,0x7f
  10c98b:	81 fe fe 00 00 00    	cmp    esi,0xfe
  10c991:	0f 87 da fe ff ff    	ja     10c871 <_RINvNtNtNtNtCs9TWaYOb1t6o_4core3num3imp7dec2flt6lemire13compute_floatfEBa_+0x21>
  10c997:	89 ca                	mov    edx,ecx
  10c999:	d1 ea                	shr    edx,1
  10c99b:	81 e2 ff ff 7f 03    	and    edx,0x37fffff
  10c9a1:	31 c0                	xor    eax,eax
  10c9a3:	48 81 f9 00 00 00 02 	cmp    rcx,0x2000000
  10c9aa:	48 0f 42 c2          	cmovb  rax,rdx
  10c9ae:	89 f2                	mov    edx,esi
  10c9b0:	c3                   	ret

Disassembly of section .text._RNCINvMNtNtCs9TWaYOb1t6o_4core3net6parserNtB5_6Parser11read_numbertE0B9_:

000000000010c9c0 <_RNCINvMNtNtCs9TWaYOb1t6o_4core3net6parserNtB5_6Parser11read_numbertE0B9_>:
  10c9c0:	55                   	push   rbp
  10c9c1:	48 89 e5             	mov    rbp,rsp
  10c9c4:	41 57                	push   r15
  10c9c6:	41 56                	push   r14
  10c9c8:	53                   	push   rbx
  10c9c9:	50                   	push   rax
  10c9ca:	48 8b 4e 08          	mov    rcx,QWORD PTR [rsi+0x8]
  10c9ce:	48 85 c9             	test   rcx,rcx
  10c9d1:	0f 84 c2 00 00 00    	je     10ca99 <_RNCINvMNtNtCs9TWaYOb1t6o_4core3net6parserNtB5_6Parser11read_numbertE0B9_+0xd9>
  10c9d7:	48 8b 06             	mov    rax,QWORD PTR [rsi]
  10c9da:	80 38 30             	cmp    BYTE PTR [rax],0x30
  10c9dd:	41 0f 94 c0          	sete   r8b
  10c9e1:	80 3f 00             	cmp    BYTE PTR [rdi],0x0
  10c9e4:	0f 84 cc 00 00 00    	je     10cab6 <_RNCINvMNtNtCs9TWaYOb1t6o_4core3net6parserNtB5_6Parser11read_numbertE0B9_+0xf6>
  10c9ea:	48 8b 06             	mov    rax,QWORD PTR [rsi]
  10c9ed:	44 8b 57 10          	mov    r10d,DWORD PTR [rdi+0x10]
  10c9f1:	41 8d 52 fe          	lea    edx,[r10-0x2]
  10c9f5:	83 fa 22             	cmp    edx,0x22
  10c9f8:	0f 87 2e 02 00 00    	ja     10cc2c <_RNCINvMNtNtCs9TWaYOb1t6o_4core3net6parserNtB5_6Parser11read_numbertE0B9_+0x26c>
  10c9fe:	4c 8b 5f 08          	mov    r11,QWORD PTR [rdi+0x8]
  10ca02:	31 d2                	xor    edx,edx
  10ca04:	45 31 c9             	xor    r9d,r9d
  10ca07:	41 83 fa 0a          	cmp    r10d,0xa
  10ca0b:	76 53                	jbe    10ca60 <_RNCINvMNtNtCs9TWaYOb1t6o_4core3net6parserNtB5_6Parser11read_numbertE0B9_+0xa0>
  10ca0d:	0f 1f 00             	nop    DWORD PTR [rax]
  10ca10:	44 0f b6 34 10       	movzx  r14d,BYTE PTR [rax+rdx*1]
  10ca15:	45 8d 7e bf          	lea    r15d,[r14-0x41]
  10ca19:	41 83 e7 df          	and    r15d,0xffffffdf
  10ca1d:	41 83 c7 0a          	add    r15d,0xa
  10ca21:	41 8d 5e d0          	lea    ebx,[r14-0x30]
  10ca25:	41 83 fe 3a          	cmp    r14d,0x3a
  10ca29:	41 0f 43 df          	cmovae ebx,r15d
  10ca2d:	44 39 d3             	cmp    ebx,r10d
  10ca30:	0f 83 54 01 00 00    	jae    10cb8a <_RNCINvMNtNtCs9TWaYOb1t6o_4core3net6parserNtB5_6Parser11read_numbertE0B9_+0x1ca>
  10ca36:	4c 39 da             	cmp    rdx,r11
  10ca39:	0f 83 cd 01 00 00    	jae    10cc0c <_RNCINvMNtNtCs9TWaYOb1t6o_4core3net6parserNtB5_6Parser11read_numbertE0B9_+0x24c>
  10ca3f:	48 ff c2             	inc    rdx
  10ca42:	45 0f af ca          	imul   r9d,r10d
  10ca46:	44 01 cb             	add    ebx,r9d
  10ca49:	41 89 d9             	mov    r9d,ebx
  10ca4c:	48 39 d1             	cmp    rcx,rdx
  10ca4f:	75 bf                	jne    10ca10 <_RNCINvMNtNtCs9TWaYOb1t6o_4core3net6parserNtB5_6Parser11read_numbertE0B9_+0x50>
  10ca51:	eb 38                	jmp    10ca8b <_RNCINvMNtNtCs9TWaYOb1t6o_4core3net6parserNtB5_6Parser11read_numbertE0B9_+0xcb>
  10ca53:	66 66 66 66 2e 0f 1f 	data16 data16 data16 cs nop WORD PTR [rax+rax*1+0x0]
  10ca5a:	84 00 00 00 00 00 
  10ca60:	0f b6 1c 10          	movzx  ebx,BYTE PTR [rax+rdx*1]
  10ca64:	83 c3 d0             	add    ebx,0xffffffd0
  10ca67:	44 39 d3             	cmp    ebx,r10d
  10ca6a:	0f 83 1a 01 00 00    	jae    10cb8a <_RNCINvMNtNtCs9TWaYOb1t6o_4core3net6parserNtB5_6Parser11read_numbertE0B9_+0x1ca>
  10ca70:	4c 39 da             	cmp    rdx,r11
  10ca73:	0f 83 93 01 00 00    	jae    10cc0c <_RNCINvMNtNtCs9TWaYOb1t6o_4core3net6parserNtB5_6Parser11read_numbertE0B9_+0x24c>
  10ca79:	48 ff c2             	inc    rdx
  10ca7c:	45 0f af ca          	imul   r9d,r10d
  10ca80:	44 01 cb             	add    ebx,r9d
  10ca83:	41 89 d9             	mov    r9d,ebx
  10ca86:	48 39 d1             	cmp    rcx,rdx
  10ca89:	75 d5                	jne    10ca60 <_RNCINvMNtNtCs9TWaYOb1t6o_4core3net6parserNtB5_6Parser11read_numbertE0B9_+0xa0>
  10ca8b:	48 01 c8             	add    rax,rcx
  10ca8e:	45 31 d2             	xor    r10d,r10d
  10ca91:	41 89 d9             	mov    r9d,ebx
  10ca94:	e9 fd 00 00 00       	jmp    10cb96 <_RNCINvMNtNtCs9TWaYOb1t6o_4core3net6parserNtB5_6Parser11read_numbertE0B9_+0x1d6>
  10ca99:	80 3f 00             	cmp    BYTE PTR [rdi],0x0
  10ca9c:	0f 84 c3 00 00 00    	je     10cb65 <_RNCINvMNtNtCs9TWaYOb1t6o_4core3net6parserNtB5_6Parser11read_numbertE0B9_+0x1a5>
  10caa2:	48 c7 46 08 00 00 00 	mov    QWORD PTR [rsi+0x8],0x0
  10caa9:	00 
  10caaa:	31 c9                	xor    ecx,ecx
  10caac:	45 31 c0             	xor    r8d,r8d
  10caaf:	31 f6                	xor    esi,esi
  10cab1:	e9 fc 00 00 00       	jmp    10cbb2 <_RNCINvMNtNtCs9TWaYOb1t6o_4core3net6parserNtB5_6Parser11read_numbertE0B9_+0x1f2>
  10cab6:	4c 8b 0e             	mov    r9,QWORD PTR [rsi]
  10cab9:	44 8b 5f 10          	mov    r11d,DWORD PTR [rdi+0x10]
  10cabd:	41 8d 43 fe          	lea    eax,[r11-0x2]
  10cac1:	83 f8 22             	cmp    eax,0x22
  10cac4:	0f 87 6d 01 00 00    	ja     10cc37 <_RNCINvMNtNtCs9TWaYOb1t6o_4core3net6parserNtB5_6Parser11read_numbertE0B9_+0x277>
  10caca:	45 31 d2             	xor    r10d,r10d
  10cacd:	31 d2                	xor    edx,edx
  10cacf:	41 83 fb 0a          	cmp    r11d,0xa
  10cad3:	76 5b                	jbe    10cb30 <_RNCINvMNtNtCs9TWaYOb1t6o_4core3net6parserNtB5_6Parser11read_numbertE0B9_+0x170>
  10cad5:	66 66 2e 0f 1f 84 00 	data16 cs nop WORD PTR [rax+rax*1+0x0]
  10cadc:	00 00 00 00 
  10cae0:	43 0f b6 04 11       	movzx  eax,BYTE PTR [r9+r10*1]
  10cae5:	44 8d 70 bf          	lea    r14d,[rax-0x41]
  10cae9:	41 83 e6 df          	and    r14d,0xffffffdf
  10caed:	41 83 c6 0a          	add    r14d,0xa
  10caf1:	8d 58 d0             	lea    ebx,[rax-0x30]
  10caf4:	83 f8 3a             	cmp    eax,0x3a
  10caf7:	41 0f 43 de          	cmovae ebx,r14d
  10cafb:	44 39 db             	cmp    ebx,r11d
  10cafe:	0f 83 c1 00 00 00    	jae    10cbc5 <_RNCINvMNtNtCs9TWaYOb1t6o_4core3net6parserNtB5_6Parser11read_numbertE0B9_+0x205>
  10cb04:	89 d0                	mov    eax,edx
  10cb06:	66 41 f7 e3          	mul    r11w
  10cb0a:	0f 80 e6 00 00 00    	jo     10cbf6 <_RNCINvMNtNtCs9TWaYOb1t6o_4core3net6parserNtB5_6Parser11read_numbertE0B9_+0x236>
  10cb10:	89 c2                	mov    edx,eax
  10cb12:	66 01 da             	add    dx,bx
  10cb15:	0f 82 db 00 00 00    	jb     10cbf6 <_RNCINvMNtNtCs9TWaYOb1t6o_4core3net6parserNtB5_6Parser11read_numbertE0B9_+0x236>
  10cb1b:	49 ff c2             	inc    r10
  10cb1e:	4c 39 d1             	cmp    rcx,r10
  10cb21:	75 bd                	jne    10cae0 <_RNCINvMNtNtCs9TWaYOb1t6o_4core3net6parserNtB5_6Parser11read_numbertE0B9_+0x120>
  10cb23:	eb 3b                	jmp    10cb60 <_RNCINvMNtNtCs9TWaYOb1t6o_4core3net6parserNtB5_6Parser11read_numbertE0B9_+0x1a0>
  10cb25:	66 66 2e 0f 1f 84 00 	data16 cs nop WORD PTR [rax+rax*1+0x0]
  10cb2c:	00 00 00 00 
  10cb30:	43 0f b6 1c 11       	movzx  ebx,BYTE PTR [r9+r10*1]
  10cb35:	83 c3 d0             	add    ebx,0xffffffd0
  10cb38:	44 39 db             	cmp    ebx,r11d
  10cb3b:	0f 83 84 00 00 00    	jae    10cbc5 <_RNCINvMNtNtCs9TWaYOb1t6o_4core3net6parserNtB5_6Parser11read_numbertE0B9_+0x205>
  10cb41:	89 d0                	mov    eax,edx
  10cb43:	66 41 f7 e3          	mul    r11w
  10cb47:	0f 80 a9 00 00 00    	jo     10cbf6 <_RNCINvMNtNtCs9TWaYOb1t6o_4core3net6parserNtB5_6Parser11read_numbertE0B9_+0x236>
  10cb4d:	89 c2                	mov    edx,eax
  10cb4f:	66 01 da             	add    dx,bx
  10cb52:	0f 82 9e 00 00 00    	jb     10cbf6 <_RNCINvMNtNtCs9TWaYOb1t6o_4core3net6parserNtB5_6Parser11read_numbertE0B9_+0x236>
  10cb58:	49 ff c2             	inc    r10
  10cb5b:	4c 39 d1             	cmp    rcx,r10
  10cb5e:	75 d0                	jne    10cb30 <_RNCINvMNtNtCs9TWaYOb1t6o_4core3net6parserNtB5_6Parser11read_numbertE0B9_+0x170>
  10cb60:	49 01 c9             	add    r9,rcx
  10cb63:	eb 0a                	jmp    10cb6f <_RNCINvMNtNtCs9TWaYOb1t6o_4core3net6parserNtB5_6Parser11read_numbertE0B9_+0x1af>
  10cb65:	4c 8b 0e             	mov    r9,QWORD PTR [rsi]
  10cb68:	45 31 c0             	xor    r8d,r8d
  10cb6b:	31 d2                	xor    edx,edx
  10cb6d:	31 c9                	xor    ecx,ecx
  10cb6f:	4c 89 0e             	mov    QWORD PTR [rsi],r9
  10cb72:	48 c7 46 08 00 00 00 	mov    QWORD PTR [rsi+0x8],0x0
  10cb79:	00 
  10cb7a:	66 be 01 00          	mov    si,0x1
  10cb7e:	31 c0                	xor    eax,eax
  10cb80:	48 85 c9             	test   rcx,rcx
  10cb83:	75 5b                	jne    10cbe0 <_RNCINvMNtNtCs9TWaYOb1t6o_4core3net6parserNtB5_6Parser11read_numbertE0B9_+0x220>
  10cb85:	e9 97 00 00 00       	jmp    10cc21 <_RNCINvMNtNtCs9TWaYOb1t6o_4core3net6parserNtB5_6Parser11read_numbertE0B9_+0x261>
  10cb8a:	48 01 d0             	add    rax,rdx
  10cb8d:	49 89 ca             	mov    r10,rcx
  10cb90:	49 29 d2             	sub    r10,rdx
  10cb93:	48 89 d1             	mov    rcx,rdx
  10cb96:	48 89 06             	mov    QWORD PTR [rsi],rax
  10cb99:	4c 89 56 08          	mov    QWORD PTR [rsi+0x8],r10
  10cb9d:	44 89 c8             	mov    eax,r9d
  10cba0:	c1 e0 10             	shl    eax,0x10
  10cba3:	41 81 f9 00 00 01 00 	cmp    r9d,0x10000
  10cbaa:	be 01 02 00 00       	mov    esi,0x201
  10cbaf:	0f 42 f0             	cmovb  esi,eax
  10cbb2:	89 f2                	mov    edx,esi
  10cbb4:	c1 ea 10             	shr    edx,0x10
  10cbb7:	f7 d6                	not    esi
  10cbb9:	83 e6 01             	and    esi,0x1
  10cbbc:	31 c0                	xor    eax,eax
  10cbbe:	48 85 c9             	test   rcx,rcx
  10cbc1:	75 1d                	jne    10cbe0 <_RNCINvMNtNtCs9TWaYOb1t6o_4core3net6parserNtB5_6Parser11read_numbertE0B9_+0x220>
  10cbc3:	eb 5c                	jmp    10cc21 <_RNCINvMNtNtCs9TWaYOb1t6o_4core3net6parserNtB5_6Parser11read_numbertE0B9_+0x261>
  10cbc5:	4d 01 d1             	add    r9,r10
  10cbc8:	4c 29 d1             	sub    rcx,r10
  10cbcb:	4c 89 0e             	mov    QWORD PTR [rsi],r9
  10cbce:	48 89 4e 08          	mov    QWORD PTR [rsi+0x8],rcx
  10cbd2:	66 be 01 00          	mov    si,0x1
  10cbd6:	4c 89 d1             	mov    rcx,r10
  10cbd9:	31 c0                	xor    eax,eax
  10cbdb:	48 85 c9             	test   rcx,rcx
  10cbde:	74 41                	je     10cc21 <_RNCINvMNtNtCs9TWaYOb1t6o_4core3net6parserNtB5_6Parser11read_numbertE0B9_+0x261>
  10cbe0:	80 7f 14 00          	cmp    BYTE PTR [rdi+0x14],0x0
  10cbe4:	0f 45 c6             	cmovne eax,esi
  10cbe7:	45 84 c0             	test   r8b,r8b
  10cbea:	0f 44 c6             	cmove  eax,esi
  10cbed:	48 83 f9 01          	cmp    rcx,0x1
  10cbf1:	0f 44 c6             	cmove  eax,esi
  10cbf4:	eb 2b                	jmp    10cc21 <_RNCINvMNtNtCs9TWaYOb1t6o_4core3net6parserNtB5_6Parser11read_numbertE0B9_+0x261>
  10cbf6:	4b 8d 04 11          	lea    rax,[r9+r10*1]
  10cbfa:	48 ff c0             	inc    rax
  10cbfd:	49 f7 d2             	not    r10
  10cc00:	49 01 ca             	add    r10,rcx
  10cc03:	48 89 06             	mov    QWORD PTR [rsi],rax
  10cc06:	4c 89 56 08          	mov    QWORD PTR [rsi+0x8],r10
  10cc0a:	eb 13                	jmp    10cc1f <_RNCINvMNtNtCs9TWaYOb1t6o_4core3net6parserNtB5_6Parser11read_numbertE0B9_+0x25f>
  10cc0c:	48 01 d0             	add    rax,rdx
  10cc0f:	48 ff c0             	inc    rax
  10cc12:	48 f7 d2             	not    rdx
  10cc15:	48 01 ca             	add    rdx,rcx
  10cc18:	48 89 06             	mov    QWORD PTR [rsi],rax
  10cc1b:	48 89 56 08          	mov    QWORD PTR [rsi+0x8],rdx
  10cc1f:	31 c0                	xor    eax,eax
  10cc21:	48 83 c4 08          	add    rsp,0x8
  10cc25:	5b                   	pop    rbx
  10cc26:	41 5e                	pop    r14
  10cc28:	41 5f                	pop    r15
  10cc2a:	5d                   	pop    rbp
  10cc2b:	c3                   	ret
  10cc2c:	48 ff c0             	inc    rax
  10cc2f:	48 ff c9             	dec    rcx
  10cc32:	48 89 06             	mov    QWORD PTR [rsi],rax
  10cc35:	eb 09                	jmp    10cc40 <_RNCINvMNtNtCs9TWaYOb1t6o_4core3net6parserNtB5_6Parser11read_numbertE0B9_+0x280>
  10cc37:	49 ff c1             	inc    r9
  10cc3a:	48 ff c9             	dec    rcx
  10cc3d:	4c 89 0e             	mov    QWORD PTR [rsi],r9
  10cc40:	48 89 4e 08          	mov    QWORD PTR [rsi+0x8],rcx
  10cc44:	48 8d 3d d2 62 ff ff 	lea    rdi,[rip+0xffffffffffff62d2]        # 102f1d <_RNvNtNtNtCs9TWaYOb1t6o_4core7unicode12unicode_data9uppercase17BITSET_CHUNKS_MAP+0x746>
  10cc4b:	48 8d 15 3e ef 01 00 	lea    rdx,[rip+0x1ef3e]        # 12bb90 <_RNvNtCslB4Q0PG65QT_6hlq_os10vga_writer9GL_VGA_WT+0x248>
  10cc52:	be 8f 00 00 00       	mov    esi,0x8f
  10cc57:	ff 15 13 eb 01 00    	call   QWORD PTR [rip+0x1eb13]        # 12b770 <_RNvNtCsditBB9aEfcw_17compiler_builtins3mem7memmove+0x140>

Disassembly of section .text._RNCNvNvXsa_NtCs9TWaYOb1t6o_4core4timeNtB9_8DurationNtNtBb_3fmt5Debug3fmt11fmt_decimals_0Bb_:

000000000010cc60 <_RNCNvNvXsa_NtCs9TWaYOb1t6o_4core4timeNtB9_8DurationNtNtBb_3fmt5Debug3fmt11fmt_decimals_0Bb_>:
  10cc60:	55                   	push   rbp
  10cc61:	48 89 e5             	mov    rbp,rsp
  10cc64:	41 57                	push   r15
  10cc66:	41 56                	push   r14
  10cc68:	41 54                	push   r12
  10cc6a:	53                   	push   rbx
  10cc6b:	48 83 ec 30          	sub    rsp,0x30
  10cc6f:	49 89 f4             	mov    r12,rsi
  10cc72:	48 89 fb             	mov    rbx,rdi
  10cc75:	48 8b 07             	mov    rax,QWORD PTR [rdi]
  10cc78:	83 38 01             	cmp    DWORD PTR [rax],0x1
  10cc7b:	75 40                	jne    10ccbd <_RNCNvNvXsa_NtCs9TWaYOb1t6o_4core4timeNtB9_8DurationNtNtBb_3fmt5Debug3fmt11fmt_decimals_0Bb_+0x5d>
  10cc7d:	48 8b 40 08          	mov    rax,QWORD PTR [rax+0x8]
  10cc81:	48 89 45 b0          	mov    QWORD PTR [rbp-0x50],rax
  10cc85:	48 8b 43 08          	mov    rax,QWORD PTR [rbx+0x8]
  10cc89:	48 89 45 c0          	mov    QWORD PTR [rbp-0x40],rax
  10cc8d:	48 8d 05 bc 2b 01 00 	lea    rax,[rip+0x12bbc]        # 11f850 <_RNvXs1i_NtCs9TWaYOb1t6o_4core3fmtReNtB6_7Display3fmtB8_>
  10cc94:	48 89 45 c8          	mov    QWORD PTR [rbp-0x38],rax
  10cc98:	48 8d 45 b0          	lea    rax,[rbp-0x50]
  10cc9c:	48 89 45 d0          	mov    QWORD PTR [rbp-0x30],rax
  10cca0:	48 8d 05 b9 a7 01 00 	lea    rax,[rip+0x1a7b9]        # 127460 <_RNvXsd_NtNtNtCs9TWaYOb1t6o_4core3fmt3num3impyNtB9_7Display3fmt>
  10cca7:	48 89 45 d8          	mov    QWORD PTR [rbp-0x28],rax
  10ccab:	4d 8b 34 24          	mov    r14,QWORD PTR [r12]
  10ccaf:	4d 8b 7c 24 08       	mov    r15,QWORD PTR [r12+0x8]
  10ccb4:	48 8d 15 50 37 ff ff 	lea    rdx,[rip+0xffffffffffff3750]        # 10040b <gdt64.pointer+0x3e3>
  10ccbb:	eb 23                	jmp    10cce0 <_RNCNvNvXsa_NtCs9TWaYOb1t6o_4core4timeNtB9_8DurationNtNtBb_3fmt5Debug3fmt11fmt_decimals_0Bb_+0x80>
  10ccbd:	48 8b 43 08          	mov    rax,QWORD PTR [rbx+0x8]
  10ccc1:	48 89 45 c0          	mov    QWORD PTR [rbp-0x40],rax
  10ccc5:	48 8d 05 84 2b 01 00 	lea    rax,[rip+0x12b84]        # 11f850 <_RNvXs1i_NtCs9TWaYOb1t6o_4core3fmtReNtB6_7Display3fmtB8_>
  10cccc:	48 89 45 c8          	mov    QWORD PTR [rbp-0x38],rax
  10ccd0:	4d 8b 34 24          	mov    r14,QWORD PTR [r12]
  10ccd4:	4d 8b 7c 24 08       	mov    r15,QWORD PTR [r12+0x8]
  10ccd9:	48 8d 15 2e 37 ff ff 	lea    rdx,[rip+0xffffffffffff372e]        # 10040e <gdt64.pointer+0x3e6>
  10cce0:	48 8d 4d c0          	lea    rcx,[rbp-0x40]
  10cce4:	4c 89 f7             	mov    rdi,r14
  10cce7:	4c 89 fe             	mov    rsi,r15
  10ccea:	ff 15 e8 e9 01 00    	call   QWORD PTR [rip+0x1e9e8]        # 12b6d8 <_RNvNtCsditBB9aEfcw_17compiler_builtins3mem7memmove+0xa8>
  10ccf0:	89 c1                	mov    ecx,eax
  10ccf2:	b0 01                	mov    al,0x1
  10ccf4:	84 c9                	test   cl,cl
  10ccf6:	0f 85 c4 00 00 00    	jne    10cdc0 <_RNCNvNvXsa_NtCs9TWaYOb1t6o_4core4timeNtB9_8DurationNtNtBb_3fmt5Debug3fmt11fmt_decimals_0Bb_+0x160>
  10ccfc:	48 8b 43 10          	mov    rax,QWORD PTR [rbx+0x10]
  10cd00:	48 8b 30             	mov    rsi,QWORD PTR [rax]
  10cd03:	48 85 f6             	test   rsi,rsi
  10cd06:	0f 84 8a 00 00 00    	je     10cd96 <_RNCNvNvXsa_NtCs9TWaYOb1t6o_4core4timeNtB9_8DurationNtNtBb_3fmt5Debug3fmt11fmt_decimals_0Bb_+0x136>
  10cd0c:	48 83 fe 0a          	cmp    rsi,0xa
  10cd10:	0f 83 b7 00 00 00    	jae    10cdcd <_RNCNvNvXsa_NtCs9TWaYOb1t6o_4core4timeNtB9_8DurationNtNtBb_3fmt5Debug3fmt11fmt_decimals_0Bb_+0x16d>
  10cd16:	48 8b 43 18          	mov    rax,QWORD PTR [rbx+0x18]
  10cd1a:	48 89 45 b0          	mov    QWORD PTR [rbp-0x50],rax
  10cd1e:	48 89 75 b8          	mov    QWORD PTR [rbp-0x48],rsi
  10cd22:	41 f6 44 24 13 10    	test   BYTE PTR [r12+0x13],0x10
  10cd28:	75 28                	jne    10cd52 <_RNCNvNvXsa_NtCs9TWaYOb1t6o_4core4timeNtB9_8DurationNtNtBb_3fmt5Debug3fmt11fmt_decimals_0Bb_+0xf2>
  10cd2a:	48 8b 43 20          	mov    rax,QWORD PTR [rbx+0x20]
  10cd2e:	48 8b 00             	mov    rax,QWORD PTR [rax]
  10cd31:	48 3d ff ff 00 00    	cmp    rax,0xffff
  10cd37:	76 1f                	jbe    10cd58 <_RNCNvNvXsa_NtCs9TWaYOb1t6o_4core4timeNtB9_8DurationNtNtBb_3fmt5Debug3fmt11fmt_decimals_0Bb_+0xf8>
  10cd39:	48 8d 3d 08 5f ff ff 	lea    rdi,[rip+0xffffffffffff5f08]        # 102c48 <_RNvNtNtNtCs9TWaYOb1t6o_4core7unicode12unicode_data9uppercase17BITSET_CHUNKS_MAP+0x471>
  10cd40:	48 8d 15 19 ee 01 00 	lea    rdx,[rip+0x1ee19]        # 12bb60 <_RNvNtCslB4Q0PG65QT_6hlq_os10vga_writer9GL_VGA_WT+0x218>
  10cd47:	be 41 00 00 00       	mov    esi,0x41
  10cd4c:	ff 15 1e ea 01 00    	call   QWORD PTR [rip+0x1ea1e]        # 12b770 <_RNvNtCsditBB9aEfcw_17compiler_builtins3mem7memmove+0x140>
  10cd52:	41 0f b7 44 24 16    	movzx  eax,WORD PTR [r12+0x16]
  10cd58:	48 8d 4d b0          	lea    rcx,[rbp-0x50]
  10cd5c:	48 89 4d c0          	mov    QWORD PTR [rbp-0x40],rcx
  10cd60:	48 8d 0d e9 2a 01 00 	lea    rcx,[rip+0x12ae9]        # 11f850 <_RNvXs1i_NtCs9TWaYOb1t6o_4core3fmtReNtB6_7Display3fmtB8_>
  10cd67:	48 89 4d c8          	mov    QWORD PTR [rbp-0x38],rcx
  10cd6b:	48 c7 45 d0 00 00 00 	mov    QWORD PTR [rbp-0x30],0x0
  10cd72:	00 
  10cd73:	66 89 45 d8          	mov    WORD PTR [rbp-0x28],ax
  10cd77:	48 8d 15 c0 5e ff ff 	lea    rdx,[rip+0xffffffffffff5ec0]        # 102c3e <_RNvNtNtNtCs9TWaYOb1t6o_4core7unicode12unicode_data9uppercase17BITSET_CHUNKS_MAP+0x467>
  10cd7e:	48 8d 4d c0          	lea    rcx,[rbp-0x40]
  10cd82:	4c 89 f7             	mov    rdi,r14
  10cd85:	4c 89 fe             	mov    rsi,r15
  10cd88:	ff 15 4a e9 01 00    	call   QWORD PTR [rip+0x1e94a]        # 12b6d8 <_RNvNtCsditBB9aEfcw_17compiler_builtins3mem7memmove+0xa8>
  10cd8e:	89 c1                	mov    ecx,eax
  10cd90:	b0 01                	mov    al,0x1
  10cd92:	84 c9                	test   cl,cl
  10cd94:	75 2a                	jne    10cdc0 <_RNCNvNvXsa_NtCs9TWaYOb1t6o_4core4timeNtB9_8DurationNtNtBb_3fmt5Debug3fmt11fmt_decimals_0Bb_+0x160>
  10cd96:	48 8b 43 28          	mov    rax,QWORD PTR [rbx+0x28]
  10cd9a:	48 89 45 c0          	mov    QWORD PTR [rbp-0x40],rax
  10cd9e:	48 8d 05 ab 2a 01 00 	lea    rax,[rip+0x12aab]        # 11f850 <_RNvXs1i_NtCs9TWaYOb1t6o_4core3fmtReNtB6_7Display3fmtB8_>
  10cda5:	48 89 45 c8          	mov    QWORD PTR [rbp-0x38],rax
  10cda9:	48 8d 15 40 3b ff ff 	lea    rdx,[rip+0xffffffffffff3b40]        # 1008f0 <gdt64.pointer+0x8c8>
  10cdb0:	48 8d 4d c0          	lea    rcx,[rbp-0x40]
  10cdb4:	4c 89 f7             	mov    rdi,r14
  10cdb7:	4c 89 fe             	mov    rsi,r15
  10cdba:	ff 15 18 e9 01 00    	call   QWORD PTR [rip+0x1e918]        # 12b6d8 <_RNvNtCsditBB9aEfcw_17compiler_builtins3mem7memmove+0xa8>
  10cdc0:	48 83 c4 30          	add    rsp,0x30
  10cdc4:	5b                   	pop    rbx
  10cdc5:	41 5c                	pop    r12
  10cdc7:	41 5e                	pop    r14
  10cdc9:	41 5f                	pop    r15
  10cdcb:	5d                   	pop    rbp
  10cdcc:	c3                   	ret
  10cdcd:	48 8d 0d a4 ed 01 00 	lea    rcx,[rip+0x1eda4]        # 12bb78 <_RNvNtCslB4Q0PG65QT_6hlq_os10vga_writer9GL_VGA_WT+0x230>
  10cdd4:	ba 09 00 00 00       	mov    edx,0x9
  10cdd9:	31 ff                	xor    edi,edi
  10cddb:	ff 15 cf ea 01 00    	call   QWORD PTR [rip+0x1eacf]        # 12b8b0 <_RNvNtCsditBB9aEfcw_17compiler_builtins3mem7memmove+0x280>

Disassembly of section .text._RNvMNtCs9TWaYOb1t6o_4core3stre12escape_debug:

000000000010cdf0 <_RNvMNtCs9TWaYOb1t6o_4core3stre12escape_debug>:
  10cdf0:	55                   	push   rbp
  10cdf1:	48 89 e5             	mov    rbp,rsp
  10cdf4:	41 57                	push   r15
  10cdf6:	41 56                	push   r14
  10cdf8:	41 54                	push   r12
  10cdfa:	53                   	push   rbx
  10cdfb:	48 83 ec 10          	sub    rsp,0x10
  10cdff:	49 89 d7             	mov    r15,rdx
  10ce02:	49 89 f6             	mov    r14,rsi
  10ce05:	48 89 fb             	mov    rbx,rdi
  10ce08:	48 85 d2             	test   rdx,rdx
  10ce0b:	74 0f                	je     10ce1c <_RNvMNtCs9TWaYOb1t6o_4core3stre12escape_debug+0x2c>
  10ce0d:	41 0f b6 36          	movzx  esi,BYTE PTR [r14]
  10ce11:	40 84 f6             	test   sil,sil
  10ce14:	78 0d                	js     10ce23 <_RNvMNtCs9TWaYOb1t6o_4core3stre12escape_debug+0x33>
  10ce16:	4d 8d 66 01          	lea    r12,[r14+0x1]
  10ce1a:	eb 60                	jmp    10ce7c <_RNvMNtCs9TWaYOb1t6o_4core3stre12escape_debug+0x8c>
  10ce1c:	31 c0                	xor    eax,eax
  10ce1e:	4d 89 f4             	mov    r12,r14
